(lp0
S'http://upload.wikimedia.org/wikipedia/commons/thumb/8/8a/Peromyscus_maniculatus.jpg/200px-Peromyscus_maniculatus.jpg\r\n'
p1
aS'http://www.dlia.org/atbi/species/Animalia/Chordata/Mammalia/images/Muridae/Peromyscus_maniculatus_RB75.jpg\r\n'
p2
aS'http://www.hiltonpond.org/images/MouseWhiteFootedJuv01.jpg\r\n'
p3
aS'http://brickshelf.com/gallery/Cotton-Mouse/Mechs/mousesig.jpg\r\n'
p4
aS'http://www.dlia.org/atbi/species/Animalia/Chordata/Mammalia/images/Muridae/Peromyscus_leucopus_RB75.jpg\r\n'
p5
aS'http://www.archbold-station.org/abs/images/Podomysfloridanus-JNL197805-ABS-FK6144-2.25x1.25.jpg\r\n'
p6
aS'http://homepage.mac.com/hart.bezner/baja2000pictures/P1030867.jpg\r\n'
p7
aS'http://www.21children.com/data/uploadfile/200604/20060425093818910.jpg\r\n'
p8
aS'http://www.debbarker.com/images/Thumbnails/Mammals/tnrat04.jpg\r\n'
p9
aS'http://www.kwmag.com/2006April/images/LawCottonMouse.jpg\r\n'
p10
aS'http://www.bio-photo.com/gallery/gallery2-2.jpg\r\n'
p11
aS'http://www.choicepest.com/images/1118661188.jpg\r\n'
p12
aS'http://edis.ifas.ufl.edu/images/268242594\r\n'
p13
aS'http://www.uwrf.edu/~cb3g/cottonrat.jpg\r\n'
p14
aS'\n'
p15
aS'http://upload.wikimedia.org/wikipedia/commons/thumb/8/8a/Peromyscus_maniculatus.jpg/200px-Peromyscus_maniculatus.jpg\r\n'
p16
aS'http://www.nsrl.ttu.edu/tmot1/images/peropect.jpg\r\n'
p17
aS'http://www.ifauna.cz/clanky/foto/07/07-06-kr5.jpg\r\n'
p18
aS'http://www.biolib.cz/IMG/THN/_12078.jpg\r\n'
p19
aS'http://www.us-national-parks.net/images/rat.jpg\r\n'
p20
aS'http://agamen.de/nager/ME/fotos/kaktus1.jpg\r\n'
p21
aS'http://www.schulzoo-herford.de/Kaktusmaus1.JPG\r\n'
p22
aS'http://www.luna-zoo.com/images/cactus2.jpg\r\n'
p23
aS'http://wotan.cse.sc.edu/perobase/images/p_crinit.jpg\r\n'
p24
aS'http://www.birdandhike.com/Wildlife/Mamm/MammHome/DSCN4125a.jpg\r\n'
p25
aS'http://img1.photographersdirect.com/img/12656/pd470785_s.jpg\r\n'
p26
aS'http://wotan.cse.sc.edu/perobase/images/p_leuco.jpg\r\n'
p27
aS'http://animaldiversity.ummz.umich.edu/site/resources/phil_myers/classic/plnbest.jpg/button.jpg\r\n'
p28
aS'http://upload.wikimedia.org/wikipedia/commons/thumb/0/01/Rattus_norvegicus_1.jpg/200px-Rattus_norvegicus_1.jpg\r\n'
p29
aS'http://www.rodent-info.de/arten/kaktusmaus/fotos/thumb_kaktusmaus_008.jpg\r\n'
p30
aS'http://www.mnh.si.edu/mna/thumbnails/images/815432211433022.jpg\r\n'
p31
aS'http://www.rodent-info.de/arten/kaktusmaus/vorschau.jpg\r\n'
p32
aS'http://www.blairsociety.com/mc/Lifelist/Mammals/Large/Peromyscus_eremicus.jpg\r\n'
p33
aS'http://farm3.static.flickr.com/2058/2205683933_87180d34b7.jpg\r\n'
p34
aS'http://www.mnh2.si.edu/education/mna/images/images/815432211433022.jpg\r\n'
p35
aS'http://billwilliamsriver.org/_images/PerEremicus_079.jpg\r\n'
p36
aS'http://www.biolib.cz/IMG/THN/_13044.jpg\r\n'
p37
aS'http://biology.swau.edu/museum/images/large/175.jpg\r\n'
p38
aS'http://www.biolib.cz/IMG/THN/_12006.jpg\r\n'
p39
aS'http://img2.photographersdirect.com/img/19309/pd1486445_s.jpg\r\n'
p40
aS'http://www.rodent-info.net/arten/kaktusmaus/fotos/kaktusmaus_001.jpg\r\n'
p41
aS'http://www.mammalogy.org/mil_images/images/mid/1174.jpg\r\n'
p42
aS'http://bp0.blogger.com/_BbKm1xAlkf4/Rko_xoDqjvI/AAAAAAAAAJw/CQBgPXspS8s/s320/Peromyscus+truei.jpg\r\n'
p43
aS'http://billwilliamsriver.org/_images/Wildlife/Mammals/PerEremicus_sm.jpg\r\n'
p44
aS'http://www.rodent-info.de/arten/kaktusmaus/fotos/kaktusmaus_009.jpg\r\n'
p45
aS'http://calphotos.berkeley.edu/imgs/128x192/0000_0000/0506/3595.jpeg\r\n'
p46
aS'http://www.krecek.razacz.net/images/krecekkaktusovy2.jpg\r\n'
p47
aS'http://www.lvwash.org/images/pocketmouse2_t.jpg\r\n'
p48
aS'http://biology.swau.edu/museum/images/large/204.jpg\r\n'
p49
aS'http://animaldiversity.ummz.umich.edu/site/resources/phil_myers/classic/peromyscus_leucopus_37.jpg/button.jpg\r\n'
p50
aS'http://brainmuseum.org/Specimens/rodentia/deermousecact/cactusmouse.jpg\r\n'
p51
aS'http://farm1.static.flickr.com/126/415817297_06895f8f44_o.jpg\r\n'
p52
aS'http://www.rodent-info.net/arten/kaktusmaus/fotos/kaktusmaus_004.jpg\r\n'
p53
aS'http://www.rodent-info.net/benutzer/schneehuhn/signatur.jpg\r\n'
p54
aS'http://www.rodent-info.net/arten/kaktusmaus/hauptbild.jpg\r\n'
p55
aS'http://www.ifauna.cz/clanky/foto/07/07-06-kr4.jpg\r\n'
p56
aS'http://faculty.mwsu.edu/west/maryann.coe/coe/StudentWork/desert/cactusmouse.jpg\r\n'
p57
aS'http://www.dfg.ca.gov/wildlife/species/ssc/images/ssc_mouse_botton.jpg\r\n'
p58
aS'http://bp2.blogger.com/_BbKm1xAlkf4/RmgaDJuU-UI/AAAAAAAAALA/pp4-2s2iKw8/s400/Peromyscus+eremicus.jpg\r\n'
p59
aS'http://content.answers.com/main/content/wp/en/thumb/c/c5/180px-SmokyShrew23.jpg\r\n'
p60
aS'http://www.sagan-gea.org/hojared_biodiversidad/paginas/dipodomys%20sp.jpg\r\n'
p61
aS'http://www.luna-zoo.com/images/mijndi113.jpg\r\n'
p62
aS'http://farm3.static.flickr.com/2281/buddyicons/22082826@N03.jpg\r\n'
p63
aS'http://www.agamen.de/nager/ME/fotos/kaktus4.jpg\r\n'
p64
aS'http://www.luna-zoo.com/images/mijndi117.jpg\r\n'
p65
aS'http://www.agamen.de/nager/ME/fotos/kaktus2.jpg\r\n'
p66
ag15
aS'http://www.2020pestcontrol.com/pest_directory/vertebrate_pests/pest_images/white_footed_mouse.jpg\r\n'
p67
aS'http://www.fcps.k12.va.us/islandcreekes/ecology/Mammals/meadow%20vole/0375.jpeg\r\n'
p68
aS'http://i.pbase.com/u39/tmurray74/upload/25349963.DSC00119.jpg\r\n'
p69
aS'http://farm2.static.flickr.com/1293/555507231_469e13ec50.jpg\r\n'
p70
aS'http://www.animalpicturesarchive.com/ThumbOLD-4/thumb-1126776440.jpg\r\n'
p71
aS'http://chinese.eurekalert.org/00/multimedia/pub/thumb/24_thumb.jpg\r\n'
p72
aS'http://www.pgc.state.pa.us/pgc/lib/pgc/wildlife/mammals/meadowVole01m.jpg\r\n'
p73
aS'http://www.fcps.edu/islandcreekes/ecology/Mammals/White-footed%20Mouse/white-footed-mouse-photo.gif\r\n'
p74
aS'http://conabioweb.conabio.gob.mx/bancoimagenes/imagenes/thumbs/thumbs19955.jpg\r\n'
p75
aS'http://www.nsrl.ttu.edu/tmot1/images/perotrue.jpg\r\n'
p76
aS'http://www.americanbear.org/old_images/OW%20deer%20mouse.jpg\r\n'
p77
aS'http://www.agpix.com/catalog/AGPix_BiBe10/large/AGPix_BiBe10_0048_Lg.jpg\r\n'
p78
aS'http://static.flickr.com/1406/554221668_d69b743f30.jpg\r\n'
p79
aS'http://www.dlia.org/atbi/species/Animalia/Chordata/Mammalia/images/Muridae/Peromyscus_maniculatus_RB75.jpg\r\n'
p80
aS'http://www.cleanairservicesinc.com/images/200_mouse.JPG\r\n'
p81
aS'http://www.biokids.umich.edu/files/12529/plnbest_badge.jpg\r\n'
p82
aS'http://www.kwo.dk/minedyr/pics/S_pero05.jpg\r\n'
p83
aS'http://www.thepartnership.com/dapws/cdc/graphics/wht-ftms.jpg\r\n'
p84
aS'http://www.cedarcreek.umn.edu/mammals/midsize/peromyscus-maniculatus.jpg\r\n'
p85
aS'http://www.greglasley.net/Images/White-footed-Deermouse-0011.jpg\r\n'
p86
aS'http://education.stonehill.edu/fieldguide/mouse15.jpg\r\n'
p87
aS'http://www.alpinepest.com/images/med_deer_mouse_picture.jpg\r\n'
p88
aS'http://www.nenature.com/Images/WhiteFootedMouseLAT.jpg\r\n'
p89
aS'http://static.flickr.com/1437/747236431_4059cdfa32.jpg\r\n'
p90
aS'http://farm2.static.flickr.com/1168/1478806450_fc6e164f0b.jpg\r\n'
p91
aS'http://www.wil-kil.com/public/pestinfo/rodents/deer-mouse124x115.jpg\r\n'
p92
aS'http://www.discoverlife.org/im/I_RB/0000/320/Ochrotomys_nuttalli,I_RB21.jpg\r\n'
p93
aS'http://animalpicturesarchive.com/animal/PREVIEW/White-footed_Mouse_1-by_Shirley_Curtis-s160.jpg\r\n'
p94
aS'http://www.hiltonpond.org/images/MouseWhiteFootedJuv01.jpg\r\n'
p95
aS'http://www.fcps.edu/islandcreekes/ecology/Mammals/White-footed%20Mouse/pleucopus1m1.jpg\r\n'
p96
aS'http://www.mammalwatching.com/Nearctic/Images/mainewhitefootedmouse.jpg\r\n'
p97
aS'http://www.innovations-report.com/bilder_neu/18650_wfmouse.jpg\r\n'
p98
aS'http://www.braveheartpc.com/a_white_footed_mouse.jpg\r\n'
p99
aS'http://dinets.travel.ru/peromzarhynchus.jpg\r\n'
p100
aS'http://ohmelovelo.dnsalias.org/wildlife/WhiteFootedMouse.jpg\r\n'
p101
aS'http://www.geog.umn.edu/courses/1403/bible421.jpg\r\n'
p102
aS'http://www.saferbrand.com/whitefooted_mouse.jpg\r\n'
p103
aS'http://www.sitemouse.com/users/amiss/mouse2.jpg\r\n'
p104
aS'http://ohmelovelo.dnsalias.org/wildlife/WhiteFootedMouseTN.jpg\r\n'
p105
aS'http://farm2.static.flickr.com/1045/565197179_3ca509dd59.jpg\r\n'
p106
aS'http://dinets.travel.ru/pele1.jpg\r\n'
p107
aS'http://calphotos.berkeley.edu/imgs/128x192/1073_3283/3181/0030.jpeg\r\n'
p108
aS'http://farm2.static.flickr.com/1022/565198899_44ddfe8488.jpg\r\n'
p109
aS'http://farm2.static.flickr.com/1295/747234707_74b50be7d7.jpg\r\n'
p110
aS'http://www.fs.fed.us/ne/amherst/images/whitefootedmouse.jpg\r\n'
p111
aS'http://149.168.1.196/nrid/photos/2006/~tn/tn6115.jpg\r\n'
p112
aS'http://www.kwo.dk/minedyr/pics/pero01.jpg\r\n'
p113
aS'http://zoo-eco.zooclub.ru/Images/9Peromyscus%20leucopus.jpg\r\n'
p114
aS'http://biodiversity.georgetown.edu/images/housemouse2-3-11-2003t.jpg\r\n'
p115
aS'http://www.agpix.com/catalog/AGPix_DwRKu12/large/AGPix_DwRKu12_0074_Lg.jpg\r\n'
p116
aS'http://www.wildlifedepartment.com/publications/images/mammal12.gif\r\n'
p117
aS'http://nationalzoo.si.edu/Publications/ZooGoer/2007/4/IMAGES/mouse.jpg\r\n'
p118
aS'http://www.hiltonpond.org/images/MouseWhiteFooted01.jpg\r\n'
p119
aS'http://www.wissenschaft-online.de/sixcms/media.php/591/peromyscus_frei.jpg\r\n'
p120
aS'http://www.dlia.org/atbi/species/Animalia/Chordata/Mammalia/images/Muridae/Peromyscus_leucopus_RB175.jpg\r\n'
p121
aS'http://www.jimnshelle.net/sunybank/archives/wfmouse.jpg\r\n'
p122
aS'http://www.greglasley.net/Images/White-footed-Deermouse-0002.jpg\r\n'
p123
aS'http://i.pbase.com/u10/tmurray74/small/25399901.128_2869_RT16.jpg\r\n'
p124
aS'http://www.visualsunlimited.com/images/watermarked/305/305765.jpg\r\n'
p125
aS'http://www.rgvnature.net/images/lasley-%20White-footed-Deermouse-0006.jpg\r\n'
p126
aS'http://farm2.static.flickr.com/1283/1142329682_28a029607c.jpg\r\n'
p127
aS'http://farm2.static.flickr.com/1232/531610221_51c9663189.jpg\r\n'
p128
aS'http://pick4.pick.uga.edu/IM/I_RB/0000/80/Peromyscus_gossypinus,I_RB24.jpg\r\n'
p129
aS'http://farm2.static.flickr.com/1291/864807141_2bd8593f6d.jpg\r\n'
p130
aS'http://animaldiversity.ummz.umich.edu/site/resources/phil_myers/classic/pln_juvie.jpg/large.jpg\r\n'
p131
aS'http://www.dlia.org/atbi/species/Animalia/Chordata/Mammalia/images/Muridae/Peromyscus_leucopus_RB75.jpg\r\n'
p132
aS'http://www.scimetricsltd.com/images/mouse2.jpg\r\n'
p133
aS'http://www.sbs.utexas.edu/halldw/Bio455L/Files/Lifelist/Mammals/Larger/Peromyscus_leucopusL.jpg\r\n'
p134
aS'http://content.answers.com/main/content/wp/en-commons/thumb/d/df/240px-Peromyscus_maniculatus.jpg\r\n'
p135
aS'http://static.flickr.com/103/296032702_efcf42541f.jpg\r\n'
p136
aS'http://packrat.musm.ttu.edu/tmot1/images/peroleuc.jpg\r\n'
p137
aS'http://www.nae.usace.army.mil/recreati/tsl/tsl_whitefootedmouse_2.jpg\r\n'
p138
aS'http://charlottemason.tripod.com/mice_files/image002.gif\r\n'
p139
aS'http://upload.wikimedia.org/wikipedia/commons/thumb/4/42/Deer_mouse,_Peromyscus_maniculatus_8360_lores.jpg/320px-Deer_mouse,_Peromyscus_maniculatus_8360_lores.jpg\r\n'
p140
aS'http://www.esf.edu/resorg/rooseveltwildlife/Research/LymeDisease/MouseHand.jpg\r\n'
p141
aS'http://www.threatenedspecies.environment.nsw.gov.au/tsprofile/images/smi-leu_small.jpg\r\n'
p142
aS'http://midcoast.tamu.edu/images/fulvous%20harvest%20mouse2.jpg\r\n'
p143
aS'http://cfs.nrcan.gc.ca/images/4058\r\n'
p144
aS'http://www.nrftd.org/images/White-footed%20mouse.jpg\r\n'
p145
aS'http://www.communalstudies.info/nhscientists/mouse.jpg\r\n'
p146
aS'http://chicagowildernessmag.org/issues/fall2003/images/FieldNotes_01.jpg\r\n'
p147
aS'http://www.doyourownpestcontrol.com/house_mouse_uc.jpg\r\n'
p148
aS'http://www.life.uiuc.edu/peeb/photogallery/photo31805/whitefootedmouse.jpg\r\n'
p149
aS'http://www.siskiyous.edu/shasta/map/mp/limv.jpg\r\n'
p150
aS'http://dinets.travel.ru/pele4.jpg\r\n'
p151
aS'http://www.stevenanz.com/Main_Directory/Plants_Animals/Vertebrates/Mammals/preview/white-footed_mouse.jpg\r\n'
p152
aS'http://www.yosemite.ca.us/library/mammals_of_yosemite/images/thumbnail/76a.jpg\r\n'
p153
aS'http://centralpets.com/critter_images/mammals/rodents/ROD_0002492_20010813171050.jpg\r\n'
p154
aS'http://www.uwgb.edu/BIODIVERSITY/econotes/2000/Peromysclow.jpg\r\n'
p155
aS'http://www.sbs.utexas.edu/halldw/Bio455L/Files/Pictures/STexasFall04/Peromyscus_leucopus.jpg\r\n'
p156
aS'http://gump.auburn.edu/goertzen/SLuG/images/Peromyscus_leucopus.png\r\n'
p157
aS'http://www.dnr.state.md.us/wildlife/art/white_footed_mouse_JW.jpg\r\n'
p158
aS'http://www.adiosproducts.com/graphics/mouse4.jpg\r\n'
p159
aS'http://www.windowstootherworlds.freemindcuisine.org/images/white-footed-mouse.jpg\r\n'
p160
aS'http://www.ecostudies.org/images/scientists/Ostfeld/dilution_3.jpg\r\n'
p161
aS'http://thumb19.webshots.net/t/36/36/6/66/71/2644666710099951519rylTfL_th.jpg\r\n'
p162
aS'http://www.visualsunlimited.com/images/watermarked/305/305773.jpg\r\n'
p163
aS'http://www.cpinternet.com/~raptor/images/whitefootedmouse.jpg\r\n'
p164
aS'http://dinets.travel.ru/peromgrandis.jpg\r\n'
p165
aS'http://www.icepest.com/images/whitefootedmouse.gif\r\n'
p166
aS'http://brainmuseum.org/Specimens/rodentia/deermousewht/whtftdmouse.jpg\r\n'
p167
aS'http://stkctr.biol.sc.edu/ll.jpg\r\n'
p168
aS'http://www.ptboro.com/gov_pages/open%20space/images/species/peromyscus%20leucopus.jpg\r\n'
p169
aS'http://virology-online.com/viruses/deer_mouse.jpg\r\n'
p170
aS'http://farm3.static.flickr.com/2244/2060799823_3f8359c9dd.jpg\r\n'
p171
aS'http://petworld.ru/img/rodents/Peromyscus_Leucopus.jpg\r\n'
p172
aS'http://www.cdc.gov/rodents/images/DMousev2.jpg\r\n'
p173
aS'http://www.backyardnature.net/pix/mouse-wf.jpg\r\n'
p174
aS'http://upload.wikimedia.org/wikipedia/commons/thumb/a/ab/House_mouse.jpg/100px-House_mouse.jpg\r\n'
p175
aS'http://www.mammalogy.org/mil_images/images/mid/785.jpg\r\n'
p176
aS'http://www.cdc.gov/rodents/images/Mmusculus_LMasters.gif\r\n'
p177
aS'http://www.animalpicturesarchive.com/ThumbOLD-6/thumb-1186728783.jpg\r\n'
p178
aS'http://whyfiles.org/shorties/131mouse_evolution/images/tree_mouse2sm.jpg\r\n'
p179
aS'http://www.mammalogy.org/mil_images/images/mid/678.jpg\r\n'
p180
aS'http://www.cdc.gov/ncidod/eid/vol5no1/mills1.1t.jpg\r\n'
p181
aS'http://broadmeadow.needham.k12.ma.us/TechCtr/animals%20Needham/whitefootedmouse.jpg\r\n'
p182
aS'http://farm2.static.flickr.com/1253/554229576_76590be56f.jpg\r\n'
p183
aS'http://www.keweenawnow.com/news/clim_change2_07_06/images/wfmouse3b.jpg\r\n'
p184
aS'http://www.mythfolklore.net/3043mythfolklore/images/animals/white-footed-mouse-photo.gif\r\n'
p185
aS'http://www.nsf.gov/news/mmg/media/images/mouse_h.jpg\r\n'
p186
aS'http://www.nysm.nysed.gov/research_collections/research/labs/mammalogy/education/mam_picts/peromyscus_leucopus.jpg\r\n'
p187
aS'http://www.animalpicturesarchive.com/animal/PREVIEW/KoreanRodent_pm35-KoreanWoodMouse-s160.jpg\r\n'
p188
aS'http://dinets.travel.ru/pele2.jpg\r\n'
p189
aS'http://www.fcps.k12.va.us/islandcreekes/ecology/Mammals/meadow%20vole/vole2.jpg\r\n'
p190
aS'http://www.daviessaudubon.org/sh_wf_mouse.jpg\r\n'
p191
aS'http://static.flickr.com/227/500729858_f72eaa850d.jpg\r\n'
p192
aS'http://zoology.muohio.edu/~images2/meikle_mouse.jpg\r\n'
p193
aS'http://www.allanbovee.com/MainFolder/photogallery/photobutteretc/Butter010.jpg\r\n'
p194
aS'http://www.srs.fs.usda.gov/compass/issue9/images/03mouse.jpg\r\n'
p195
aS'http://www.beyondmainst.org/assets/whitefootedmouse.jpg\r\n'
p196
aS'http://www.copperheadconsulting.com/images/161_white-footed_mouse.JPG_40_.jpg\r\n'
p197
aS'http://www.sciencedaily.com/images/2007/10/071019145443.jpg\r\n'
p198
aS'http://www.biokids.umich.edu/files/12515/pln1_badge.jpg\r\n'
p199
aS'http://www.cdc.gov/rodents/images/PLuecopus.jpg\r\n'
p200
aS'http://alongthecharles.com/index/03/images/Mammals/Dsc07863.jpg\r\n'
p201
aS'http://education.stonehill.edu/fieldguide/Field_Guide/Mammals/mouse24.jpg\r\n'
p202
aS'http://www.animalpicturesarchive.com/Thumb05/thumb-1152247073.jpg\r\n'
p203
aS'http://www.discoverlifeinamerica.org/atbi/species/Animalia/Chordata/Mammalia/images/Muridae/Peromyscus_leucopus_EP175.jpg\r\n'
p204
aS'http://www.usd.edu/biol/pero1.jpeg\r\n'
p205
aS'http://healthnerds.com/cutenews/data/upimages/mouse.jpg\r\n'
p206
aS'http://www.epestsupply.com/images/bugs/dmouse.jpg\r\n'
p207
aS'http://www.animaltrek.com/mammals/mouse/tn_004_jpg.jpg\r\n'
p208
aS'http://www.lymeproject.com/Dr_Cameron/AAHome/mouseNewHampshire.gif\r\n'
p209
aS'http://www.srs.fs.usda.gov/cc/images/smft.jpg\r\n'
p210
aS'http://www.agpix.com/catalog/AGPix_DwRKu12/AGPix_DwRKu12_0148.jpg\r\n'
p211
aS'http://farm1.static.flickr.com/225/500776733_19719612d0.jpg\r\n'
p212
aS'http://stkctr.biol.sc.edu/gn.jpg\r\n'
p213
aS'http://animal.discovery.com/guides/mammals/habitat/tempforest/gallery/whitemouse_main.jpg\r\n'
p214
aS'http://www.outdooralabama.com/watchable-wildlife/images/wfm2.jpg\r\n'
p215
aS'http://members.lycos.nl/magischemuis/hpbimg/peromyscus%20leucopus.bmp\r\n'
p216
aS'http://www2.biology.ualberta.ca/uamz.hp/mouse.jpg\r\n'
p217
aS'http://www.visualsunlimited.com/images/watermarked/305/305761.jpg\r\n'
p218
aS'http://www.savecrowsnest.com/media/images/photos/wildlife/White-footed-mouse.jpg\r\n'
p219
aS'http://animaldiversity.ummz.umich.edu/site/resources/phil_myers/ADW_mammals_3_4_03/maniculatus6455.jpg/badge.jpg\r\n'
p220
aS'http://www.stevenanz.com/Main_Directory/Plants_Animals/Vertebrates/Mammals/image/white-footed_mouse_030327.jpg\r\n'
p221
aS'http://www.visualsunlimited.com/images/watermarked/305/305763.jpg\r\n'
p222
aS'http://www.kidsbiology.com/library/image.php?src=/images/repository/Mus%20musculus1152189696.jpg&width=300&height=400\r\n'
p223
aS'http://www.ndi4all.org/step_by_step/images/White%20footed%20mouse%20-%20L.%20L.%20Master.jpg\r\n'
p224
aS'http://www.depauw.edu/univ/naturepark/classes/images/small%20mammal%20-%20mouse.jpg\r\n'
p225
aS'http://www.unitedwildlife.com/images/s_mouse.jpg\r\n'
p226
aS'http://omcpestcontrol.com/resources/rodents/white_footed_mouse.jpg\r\n'
p227
aS'http://www.cdc.gov/ncidod/eid/vol5no1/mills1.1b.jpg\r\n'
p228
aS'http://www.forestry.caf.wvu.edu/jAnderson/DM2.jpg\r\n'
p229
aS'http://www.uncg.edu/%7Emdschug/Images/Pleucopus.jpg\r\n'
p230
aS'http://www.kwo.dk/minedyr/pics/pero07.jpg\r\n'
p231
aS'http://www.greatswamp.org/Photos/whitefoot.mice.face.2.jpg\r\n'
p232
aS'http://www.kwo.dk/minedyr/pics/S_pero03.jpg\r\n'
p233
aS'http://www.wwhd.org/TLD_CD/images/mouse6.jpg\r\n'
p234
aS'http://usmo4.discoverlife.org/nh/tx/Vertebrata/Mammalia/Muridae/Peromyscus/leucopus/images/Peromyscus_leucopus.320.jpg\r\n'
p235
aS'http://www.dgif.virginia.gov/wildlife/species/photos/050074-1.jpg\r\n'
p236
aS'http://www.visualsunlimited.com/images/watermarked/417/417233.jpg\r\n'
p237
aS'http://www.kwo.dk/minedyr/pics/S_pero04.jpg\r\n'
p238
aS'http://www.discoverlife.org/im/I_RB/0000/320/Peromyscus_maniculatus,I_RB26.jpg\r\n'
p239
aS'http://www.bircherexterminating.com/pests/images/mouse_deer.jpg\r\n'
p240
aS'http://www.mnh2.si.edu/education/mna/images/images/815432211433025.jpg\r\n'
p241
aS'http://dinets.travel.ru/pele3.jpg\r\n'
p242
aS'http://www.sbs.utexas.edu/halldw/Bio455L/Files/Lifelist/Mammals/Peromyscus_leucopus.jpg\r\n'
p243
aS'http://www.abc.net.au/science/news/img/life/white_footed_mouse.jpg\r\n'
p244
aS'http://www.clemson.edu/cef/bat%20and%20mammal%20%20images/oldfield%20mouse.jpg\r\n'
p245
aS'http://www.agpix.com/catalog/AGPix_elinorosborn/AGPix_elinorosborn_0148.jpg\r\n'
p246
aS'http://www.algonquinhighlands.net/acards/mammals/rodents/pics/dmouse_lg.jpg\r\n'
p247
aS'http://faculty.govst.edu/science/faculty/yunger/Home%20Page/Mouse.jpg\r\n'
p248
aS'http://www.animalpicturesarchive.com/animal/PIX/White-footedMouse.jpg\r\n'
p249
aS'http://www.mythfolklore.net/3043mythfolklore/images/animals/white-footed-mouse-photo_100.gif\r\n'
p250
aS'http://www.science.siu.edu/zoology/schauber/EMS%20Research%20Page_files/image001.gif\r\n'
p251
aS'http://karkasinfo.org.ru/UserFiles/Image/6364/693.jpg\r\n'
p252
aS'http://www.mantispest.org/images/deermouse10.jpg\r\n'
p253
aS'http://www.netzeitung.de/img/0006/108106.jpg\r\n'
p254
aS'http://upload.wikimedia.org/wikipedia/commons/thumb/6/62/Mus_Musculus-huismuis.jpg/250px-Mus_Musculus-huismuis.jpg\r\n'
p255
aS'http://www.wildmetro.org/smouse.gif\r\n'
p256
aS'http://bp3.blogger.com/_4GNB_gJalgo/RmWlhucqgqI/AAAAAAAAAA0/mZ7bPjVjpp0/s200/mouse_mama_web.jpg\r\n'
p257
aS'http://farm2.static.flickr.com/1406/667259604_b0db42fa8d.jpg\r\n'
p258
aS'http://ftp2.uk.freebsd.org/sites/brainmuseum.org/Specimens/rodentia/deermousewht/whtftdmouse.jpg\r\n'
p259
aS'http://www.kwo.dk/minedyr/pics/pero02.jpg\r\n'
p260
aS'http://bp2.blogger.com/_RKiCaFOBGTk/RcVjQJHzHnI/AAAAAAAAAA4/GvZ-TyPs6gk/s200/mouse+closeup2.jpg\r\n'
p261
aS'http://www.nps.gov/shen/naturescience/images/u986h6w4.jpg\r\n'
p262
aS'http://www.visualsunlimited.com/images/watermarked/212/212884.jpg\r\n'
p263
aS'http://www.2020pestcontrol.com/pest_directory/vertebrate_pests/pest_images/deer_mouse.jpg\r\n'
p264
aS'http://www.neoperceptions.com/fauna/mammals/images/deermouse1a.jpg\r\n'
p265
aS'http://www.gotpetsonline.com/pictures-gallery/small-animal-pictures-breeders-babies/mouse-pictures-breeders-babies/pictures/mouse-0006.jpg\r\n'
p266
aS'http://www.landonp.com/web/morningside/images/mouse.jpg\r\n'
p267
aS'http://www.visualsunlimited.com/images/watermarked/305/305977.jpg\r\n'
p268
aS'http://www.hopkins-arthritis.org/images/lyme_peromyscus.gif\r\n'
p269
aS'http://farm1.static.flickr.com/191/447923501_a22d36ea3a.jpg\r\n'
p270
aS'http://www.nyfalls.com/wildlife/gallery/mammals/Peromyscus-leucopus/01.jpg\r\n'
p271
aS'http://pick4.pick.uga.edu/IM/I_RB/0000/80/Peromyscus_maniculatus,I_RB26.jpg\r\n'
p272
aS'http://edoc.hu-berlin.de/dissertationen/klempa-boris-2004-12-09/HTML/image005.jpg\r\n'
p273
aS'http://imagecache2.allposters.com/images/pic/NGSPOD04/108187~A-Black-Timber-Rattlesnake-Swallows-a-White-Footed-Mouse-Posters.jpg\r\n'
p274
aS'http://www.westernpest.com/residential/images/library/house_mouse.jpg\r\n'
p275
aS'http://www.pleasebekind.com/pic/mice.jpg\r\n'
p276
aS'http://www.performance-vision.com/airline/sum06-124.jpg\r\n'
p277
aS'http://upload.wikimedia.org/wikipedia/commons/thumb/e/ee/Sigmodon_hispidus1.jpg/180px-Sigmodon_hispidus1.jpg\r\n'
p278
aS'http://www.mnh2.si.edu/education/mna/thumbnails/images/815432211433028.jpg\r\n'
p279
aS'http://www.adamspestcontrol.net/insects/images/whitefootedmouse2.jpg\r\n'
p280
aS'http://www.clayhillforest.org/biota/mammals/images/woodrat.gif\r\n'
p281
aS'http://www.kwo.dk/minedyr/pics/pero06.jpg\r\n'
p282
aS'http://www.cdc.gov/rodents/images/252v2.jpg\r\n'
p283
aS'http://fwp.mt.gov/content/getItem.aspx?id=5627&maxwidth=100\r\n'
p284
aS'http://www.twp.freehold.nj.us/tbde/public/diseases/images_diseases/mice.jpg\r\n'
p285
ag15
aS'http://www.batguys.com/images/mice/mouse.jpg\r\n'
p286
aS'http://www.newyork-avenue.com/galleries/Central_Park/Central_Park_Zoo/thumbnail/small_cpz_A_MouseDeer.jpg\r\n'
p287
aS'http://fhtms.sbschools.net/users/bwight/2003/Anna%20L/Mammal/stairing%20deermouse.jpg\r\n'
p288
aS'http://static.flickr.com/26/57447191_7a13669775.jpg\r\n'
p289
aS'http://www.americanpest.net/images/resources/vertebrate-pests/deer_mouse.jpg\r\n'
p290
aS'http://www.wildlifewindow.com/images/peromyscus_maniculatus2.jpg\r\n'
p291
aS'http://brainmuseum.org/Specimens/rodentia/labdeermse/labmsebairdii.jpg\r\n'
p292
aS'http://www.2020pestcontrol.com/pest_directory/vertebrate_pests/pest_images/white_footed_mouse.jpg\r\n'
p293
aS'http://www.uleth.ca/vft/crowsnest/deermouse.jpg\r\n'
p294
aS'http://www.ccac.ca/fr/CCAC_Programs/ETCC/Images/DeerMouse.jpg\r\n'
p295
aS'http://www.draperwildlife.com/MammalIndexpage/deermouse.jpg\r\n'
p296
aS'http://animaldiversity.ummz.umich.edu/site/resources/phil_myers/ADW_mammals_3_4_03/maniculatus9175.jpg/large.jpg\r\n'
p297
aS'http://static.flickr.com/117/302904995_7a906d5beb.jpg\r\n'
p298
aS'http://0-www.cdc.gov.mill1.sjlibrary.org/rodents/images/Mmusculus_LMasters.gif\r\n'
p299
aS'http://www.fishingbig.com/images/thumbs/deer_hair_mouserat.jpg\r\n'
p300
aS'http://www.umt.edu/urelations/vision/2006/images/28mouse.jpg\r\n'
p301
aS'http://gek.hdsb.ca/grassroots2003/grassroots/newwatson/images/oprah\r\n'
p302
aS'http://www.bio.davidson.edu/Courses/anphys/1999/Dickens/deermouse3.gif\r\n'
p303
aS'http://www.hesd.k12.ca.us/resource/biomes/MrPadensThesis/Virtual%20Tour/Pictures/Mammals/deermouse.jpg\r\n'
p304
aS'http://static.flickr.com/122/314466111_37bebd72c1.jpg\r\n'
p305
aS'http://natureali.org/images/mammals/deer_mouse_on_rock_copy.jpg\r\n'
p306
aS'http://faculty.ucr.edu/~chappell/INW/mammals/deer%20mouse.jpg\r\n'
p307
aS'http://biogerontologi.se/wp-content/uploads/2007/07/deer-mouse_2.jpg\r\n'
p308
aS'http://static.flickr.com/115/296658712_dfc468e69a.jpg\r\n'
p309
aS'http://www.milosphotos.com/wildlife3/deermouse.jpg\r\n'
p310
aS'http://www.gildartphoto.com/gallery2/main.php?g2_view=core.DownloadItem&g2_itemId=1263&g2_serialNumber=4\r\n'
p311
aS'http://www.cbc.ca/gfx/pix/mouse_deer_PHIL.jpg\r\n'
p312
aS'http://www.thamnophis.com/thamphotos/data/500/medium/babymouse_0407.jpg\r\n'
p313
aS'http://static.flickr.com/184/474983853_eb7f4bdc0c.jpg\r\n'
p314
aS'http://fhtms.sbschools.net/users/bwight/2002/mollyf/deer_mouse_on_line.jpg\r\n'
p315
aS'http://content.answers.com/main/content/img/BritannicaConcise/thumbnails/2820.gif\r\n'
p316
aS'http://ladywildlife.com/animal/deermouse4.jpg\r\n'
p317
aS'http://www.americanbear.org/old_images/OW%20deer%20mouse.jpg\r\n'
p318
aS'http://www.uic.edu/classes/bios/bios100/labs/deermouse.jpg\r\n'
p319
aS'http://www.animalpictureshq.com/data/thumbnails/307/mouse.jpg\r\n'
p320
aS'http://www.nsf.gov/news/mmg/media/images/mouse_f.jpg\r\n'
p321
aS'http://www.spiritdancers.org/rilla/images/rdeer/simon3.jpg\r\n'
p322
aS'http://www.webearthonline.com/images/deer_mouse_2.jpg\r\n'
p323
aS'http://www.dlia.org/atbi/species/Animalia/Chordata/Mammalia/images/Muridae/Peromyscus_maniculatus_RB75.jpg\r\n'
p324
aS'http://packrat.musm.ttu.edu/tmot1/images/peromani.jpg\r\n'
p325
aS'http://www.health.state.nm.us/epi/images/deer-mouse.gif\r\n'
p326
aS'http://biology.fullerton.edu/biol426/426gp10/deermous.jpg\r\n'
p327
aS'http://dinets.travel.ru/pema1.jpg\r\n'
p328
aS'http://dinets.travel.ru/peromfurvus.jpg\r\n'
p329
aS'http://climate.konza.ksu.edu/gallery/deer_mouse_small.JPG\r\n'
p330
aS'http://ucreserve.ucsc.edu/YoungerLagoon/photos/small/deermouse_sm.jpg\r\n'
p331
aS'http://www.escape.org/lwm/albums/album100/WHMouse_6_7g.sized.jpg\r\n'
p332
aS'http://www.escape.org/lwm/albums/album155/DeerMouse_2004_1306_20040425_07.sized.jpg\r\n'
p333
aS'http://static.flickr.com/88/269831473_5ef2079f8e.jpg\r\n'
p334
aS'http://www.thepartnership.com/dapws/cdc/graphics/wht-ftms.jpg\r\n'
p335
aS'http://wildwnc.org/wallpapers/images/deermouse1a.jpg\r\n'
p336
aS'http://www.pestproductsonline.com/Graphics2/rodent_deer_mouse.jpg\r\n'
p337
aS'http://www.ksr.ku.edu/libres/Mammals_of_Kansas/images/p-manic.JPG\r\n'
p338
aS'http://public.carnet.hr/XIIIgim/pictures/rodents/kangaroo_rat.jpg\r\n'
p339
aS'http://www.discoverlifeinamerica.org/atbi/species/Animalia/Chordata/Mammalia/images/Muridae/Peromyscus_maniculatus_RB175.jpg\r\n'
p340
aS'http://graphics8.nytimes.com/images/2006/04/03/science/04mice.3.jpg\r\n'
p341
aS'http://www.rodentbreak.com/album/thumbs/deer_mouse_picture.jpg\r\n'
p342
aS'http://www.globalbirdphotos.com/images/zz-animals/deer_mouse/drm1981_01at.jpg\r\n'
p343
aS'http://edoc.hu-berlin.de/dissertationen/klempa-boris-2004-12-09/HTML/image004.gif\r\n'
p344
aS'http://static.flickr.com/86/245161206_8b7e60049b.jpg\r\n'
p345
aS'http://www.mv.com/ipusers/lsg/Pix/Critters/Housemouse2c.jpg\r\n'
p346
aS'http://www.fs.fed.us/pnw/mtsthelens/photo-gallery/photos/images/cc-Deer-mouse.jpg\r\n'
p347
aS'http://www.sdnhm.org/fieldguide/mammals/images/deermouse-250.jpg\r\n'
p348
aS'http://www-biology.ucsd.edu/labs/hoekstra/Pictures/PeroPair.jpg\r\n'
p349
aS'http://frogwood.org/images/mouse.jpg\r\n'
p350
aS'http://www.ucalgary.ca/UofC/faculties/SS/GEOG/Virtual/Animals/deermouse.gif\r\n'
p351
aS'http://www.nyfalls.com/wildlife/gallery/mammals/Peromyscus-maniculatus/02.jpg\r\n'
p352
aS'http://www.greglasley.net/Images/White-footed-Deermouse-0011.jpg\r\n'
p353
aS'http://forces.si.edu/images/elnino/hantavirus.jpg\r\n'
p354
aS'http://static.flickr.com/47/111967444_bbbbfd9a77.jpg\r\n'
p355
aS'http://farm2.static.flickr.com/1033/1093801889_9b6aa5907e.jpg\r\n'
p356
aS'http://faculty.ucr.edu/~chappell/INW/mammals/deermouse6.jpg\r\n'
p357
aS'http://www.wil-kil.com/public/pestinfo/rodents/deer-mouse124x115.jpg\r\n'
p358
aS'http://www.msu.edu/user/p/a/pagekel1/web/mouse.jpg\r\n'
p359
aS'http://farm1.static.flickr.com/47/132647850_74a003a1b9.jpg\r\n'
p360
aS'http://biology.swau.edu/museum/images/medium/218.jpg\r\n'
p361
aS'http://static.flickr.com/1207/529859342_b25ca07ac1.jpg\r\n'
p362
aS'http://www.nae.usace.army.mil/recreati/nsl/nsl_deermouse_2.jpg\r\n'
p363
aS'http://www.thetweetshop.com/USERIMAGES/Wood%20Mouse,%20Six%20Bells,%20May%202007.jpg\r\n'
p364
aS'http://www.ndi4all.org/grade45/images/Deer%20mouse%20-%20Dr.%20Lloyd%20Glenn%20Ingles.jpg\r\n'
p365
aS'http://static.flickr.com/54/132647851_c1bfd74167.jpg\r\n'
p366
aS'http://www.insectimages.org/images/768x512/2133024.jpg\r\n'
p367
aS'http://www.hiltonpond.org/images/MouseWhiteFootedJuv01.jpg\r\n'
p368
aS'http://www.rodentbreak.com/album/thumbs/deermouse2.jpg\r\n'
p369
aS'http://www.cdc.gov/ncidod/diseases/hanta/hps/graphics/Rodent_008.gif\r\n'
p370
aS'http://forces.si.edu/images/elnino/deerMouseSmall.jpg\r\n'
p371
aS'http://static.flickr.com/23/37840672_a881fd1858.jpg\r\n'
p372
aS'http://www.cdphe.state.co.us/dc/Zoonosis/hanta/images/hvmouse.jpg\r\n'
p373
aS'http://animaldiversity.ummz.umich.edu/site/resources/phil_myers/ADW_mammals_3_4_03/maniculatus6454.jpg/badge.jpg\r\n'
p374
aS'http://brainmuseum.org/specimens/rodentia/gracilemouse/body/deermouse_grac_.jpg\r\n'
p375
aS'http://www.funkman.org/animal/mammal/deermouse.jpg\r\n'
p376
aS'http://www.animalpictureshq.com/data/media/307/deer_mouse_c_Alison_Sheehey.jpg\r\n'
p377
aS'http://www.visualsunlimited.com/images/watermarked/426/426146.jpg\r\n'
p378
aS'http://farm1.static.flickr.com/135/335882891_20d7f73cb7.jpg\r\n'
p379
aS'http://www.varmentguard.com/images/pests-rodents.jpg\r\n'
p380
aS'http://static.flickr.com/88/245160815_3a78d7a867.jpg\r\n'
p381
aS'http://www.icpetportraits.com/wildlife/harvest_mouse-on_corn-sideview_170w.jpg\r\n'
p382
aS'http://www.nsf.gov/news/mmg/media/images/mouse_r.jpg\r\n'
p383
aS'http://static.flickr.com/153/348722799_015cdb4334.jpg\r\n'
p384
aS'http://museum.utep.edu/chih/theland/animals/mammals/perommansm.jpeg\r\n'
p385
aS'http://www.rodentbreak.com/album/thumbs/deer%20mouse.jpg\r\n'
p386
aS'http://www.championpestcontrol.com/images/deermouse.jpg\r\n'
p387
aS'http://www.escape.org/lwm/albums/album155/DeerMouse_2004_1306_20040425_05.thumb.jpg\r\n'
p388
aS'http://share3.esd105.wednet.edu/rsandelin/NWnature/2006/Photos/Deer%20mouse1.JPG\r\n'
p389
aS'http://brainmuseum.org/specimens/rodentia/labdeermse/labmsebairdii.jpg\r\n'
p390
aS'http://hastingsreserve.org/WebLog/Peromyscus_Cal_L_Master.jpg\r\n'
p391
aS'http://www.peipestcontrol.com/database/images/pests/deermouse_s.jpg\r\n'
p392
aS'http://www.tws-west.org/gw/images/39.jpg\r\n'
p393
aS'http://www.sitemouse.com/users/amiss/mouse2.jpg\r\n'
p394
aS'http://dorsetwildlife.co.uk/media/images/pix/fauna/holway_wood-woodmouse.jpg\r\n'
p395
aS'http://calphotos.berkeley.edu/imgs/128x192/1073_3283/3181/0030.jpeg\r\n'
p396
aS'http://www.globalbirdphotos.com/images/zz-animals/deer_mouse/drm1981_01bs.jpg\r\n'
p397
aS'http://www.prophotosecrets.com/Members/gallery/data/500/Deer_Mouse_1179_A.jpg\r\n'
p398
aS'http://www.escape.org/lwm/albums/album246/DeerMouse_2004_5553_4_20041029_02.highlight.jpg\r\n'
p399
aS'http://www.apmnc.com/pestdb/images/deermouse_med.jpg\r\n'
p400
aS'http://farm3.static.flickr.com/2120/1675465826_d8f3c9813d.jpg\r\n'
p401
aS'http://farm2.static.flickr.com/1183/728792062_ba3d053432.jpg\r\n'
p402
aS'http://www.animals-online.be/rodents/pict/harvest_mouse.jpg\r\n'
p403
aS'http://www.nwf.org/kidzone/customcontent/kidsguides/images/ma0087_1s.jpg\r\n'
p404
aS'http://ist-socrates.berkeley.edu/~akerr/personal/deer-mouse.jpg\r\n'
p405
aS'http://srv2.lycoming.edu/~BROUSSAR/PM.jpg\r\n'
p406
aS'http://www.nsf.gov/news/mmg/media/images/mouse_l.jpg\r\n'
p407
aS'http://farm3.static.flickr.com/2128/2205684197_5570ba049e.jpg\r\n'
p408
aS'http://i.pbase.com/u13/lilwings/small/3459462.729mouse.jpg\r\n'
p409
aS'http://ladywildlife.com/animal/deermouse3.jpg\r\n'
p410
aS'http://www.shaldonwildlifetrust.org.uk/images/lh_slow_loris2.jpg\r\n'
p411
aS'http://nationalzoo.si.edu/Publications/ZooGoer/2007/4/IMAGES/mouse.jpg\r\n'
p412
aS'http://animals.m0.timduru.org/dirlist/deers/CHEVROTAIN-OR-MOUSEDEER.JPG\r\n'
p413
aS'http://static.flickr.com/2010/2101332217_42b4f1c969.jpg\r\n'
p414
aS'http://farm2.static.flickr.com/1391/1094765450_4b1d8c75fe.jpg\r\n'
p415
aS'http://www.pestrite.com/images/rodents/house_mouse.jpg\r\n'
p416
aS'http://geo.arc.nasa.gov/sge/health/projects/hanta/images/deer_mousesmall.jpg\r\n'
p417
aS'http://content.answers.com/main/content/wp/en/thumb/8/8e/180px-SaltMarshHarvestMouse.jpg\r\n'
p418
aS'http://static.flickr.com/224/497679222_8c9e387488.jpg\r\n'
p419
aS'http://cache.boston.com/resize/bonzai-fba/AP_Photo/2007/10/03/1191444417_3672/410w.jpg\r\n'
p420
aS'http://dinets.travel.ru/pebo34.jpg\r\n'
p421
aS'http://www.fs.fed.us/r6/centraloregon/wildlife/species/mammals/images/ro-darkkangaroomouse.jpg\r\n'
p422
aS'http://www.pri.kyoto-u.ac.jp/hope/reports/18-055/2.jpg\r\n'
p423
aS'http://www.firstscience.com/SITE/IMAGES/ARTICLES/fever/mouse_bug.jpeg\r\n'
p424
aS'http://www.killfireants.com/images/pest/deermouse_med.jpg\r\n'
p425
aS'http://farm2.static.flickr.com/1129/1019908068_bc424d30d2.jpg\r\n'
p426
aS'http://farm1.static.flickr.com/88/245161878_3e9a4b5e59.jpg\r\n'
p427
aS'http://www.cdc.gov/ncidod/dvrd/spb/images/mice/mailmice/drms_thb.jpg\r\n'
p428
aS'http://www.markhickenphotography.co.uk/Images/Mammals/wood-mouse.jpg\r\n'
p429
aS'http://static.flickr.com/36/111250622_fa9ce6d32b.jpg\r\n'
p430
aS'http://www.stanford.edu/class/humbio103/ParaSites2002/capillariasis/rbvole.gif\r\n'
p431
aS'http://petoftheday.com/archive/2007/April/29.jpg\r\n'
p432
aS'http://www.bugladyconsulting.com/images/House/the%20whole%20family%20email.jpg\r\n'
p433
aS'http://ebiquity.umbc.edu/fieldmarking/wp-content/uploads/2007/09/mouse4.jpg\r\n'
p434
aS'http://farm1.static.flickr.com/164/428759064_e0d3aee860.jpg\r\n'
p435
aS'http://www.greglasley.net/Images/White-footed-Deermouse-0002.jpg\r\n'
p436
aS'http://www.mamc.amedd.army.mil/preventive_med/images/mouse.gif\r\n'
p437
aS'http://www.umatilla-cmp.org/images/Mammals/Great%20Basin%20pocket%20mouse2.jpg\r\n'
p438
aS'http://www.lakecountyspecies.org/images/species/thumb/MM256_1.jpg\r\n'
p439
aS'http://safety.dri.edu/HantaVirus/images/hv038cm.jpg\r\n'
p440
aS'http://fhtms.sbschools.net/users/bwight/2002/mollyf/baby%20deer%20mouse.jpg\r\n'
p441
aS'http://i.pbase.com/u10/tmurray74/small/25399901.128_2869_RT16.jpg\r\n'
p442
aS'http://animaldiversity.ummz.umich.edu/site/resources/phil_myers/classic/pmgadult.jpg/badge.jpg\r\n'
p443
aS'http://www.rgvnature.net/images/lasley-%20White-footed-Deermouse-0006.jpg\r\n'
p444
aS'http://farm1.static.flickr.com/39/99974651_01f01503e5.jpg\r\n'
p445
aS'http://farm2.static.flickr.com/1313/578349043_a89b631d30.jpg\r\n'
p446
aS'http://biology.swau.edu/museum/images/medium/229.jpg\r\n'
p447
aS'http://fwie.fw.vt.edu/TN/pictures/housemouse.jpg\r\n'
p448
aS'http://wotan.cse.sc.edu/perobase/images/brown1.jpg\r\n'
p449
aS'http://www.tunturisusi.com/wildwest/peurahiiri.jpg\r\n'
p450
aS'http://www.gc.maricopa.edu/biology/mouse.gif\r\n'
p451
aS'http://amazinganimalproductions.com/images/thumbs/deer_mouse.jpg\r\n'
p452
aS'http://safety.dri.edu/HantaVirus/images/hv038bm.jpg\r\n'
p453
aS'http://farm2.static.flickr.com/1232/531610221_51c9663189.jpg\r\n'
p454
aS'http://pick4.pick.uga.edu/IM/I_RB/0000/80/Peromyscus_gossypinus,I_RB24.jpg\r\n'
p455
aS'http://www.aacutepestcontrol.com/images/deermouse.gif\r\n'
p456
aS'http://images.encarta.msn.com/xrefmedia/sharemed/targets/images/pho/t025/T025513B.jtn\r\n'
p457
aS'http://www.davidlnelson.md/Cazadero/CazImages/DeerMouse.jpg\r\n'
p458
aS'http://farm3.static.flickr.com/2158/2041234788_076cf37db2.jpg\r\n'
p459
aS'http://brainmuseum.org/Specimens/rodentia/deermousefl/Flamouse.jpg\r\n'
p460
aS'http://www.scimetricsltd.com/images/mouse2.jpg\r\n'
p461
aS'http://www.naturalbornbirder.com/oeygarden/mouse_e.jpg\r\n'
p462
aS'http://farm3.static.flickr.com/2014/2040685895_635e7532b9.jpg\r\n'
p463
aS'http://www.nps.gov/pefo/naturescience/images/bunny.jpg\r\n'
p464
aS'http://www.bear-tracker.com/images/littlemouse210292006.jpg\r\n'
p465
aS'http://www.dpaphoto.com/zpictures/photoa/thumbnails/11148.jpg\r\n'
p466
aS'http://whyfiles.org/180zoonotic_disease/images/deermouse2.jpg\r\n'
p467
aS'http://upload.wikimedia.org/wikipedia/commons/thumb/4/42/Deer_mouse,_Peromyscus_maniculatus_8360_lores.jpg/320px-Deer_mouse,_Peromyscus_maniculatus_8360_lores.jpg\r\n'
p468
aS'http://biology.swau.edu/museum/images/large/193.jpg\r\n'
p469
aS'http://static.flickr.com/61/157786671_970d97b77f.jpg\r\n'
p470
aS'http://www.ucalgary.ca/~acteuche/mammals/th_deermouse.jpg\r\n'
p471
aS'http://cache.eb.com/eb/thumb?id=85846\r\n'
p472
aS'http://www.co.weld.co.us/departments/health/images/deermouse.gif\r\n'
p473
aS'http://www.rodentbreak.com/album/thumbs/deermouse8.jpg\r\n'
p474
aS'http://www.advantix.info/fileadmin/images/advantix/contentimg/whitefootmouse.jpg\r\n'
p475
aS'http://www1.istockphoto.com/file_thumbview_approve/415395/2/istockphoto_415395_deer_mouse.jpg\r\n'
p476
aS'http://i.pbase.com/u13/lilwings/small/3459463.729mouse2.jpg\r\n'
p477
aS'http://farm2.static.flickr.com/1025/832251668_0adb532478.jpg\r\n'
p478
aS'http://www.birdandhike.com/Wildlife/Mamm/MammHome/DSC_0107a.jpg\r\n'
p479
aS'http://static.flickr.com/1080/533238237_d79cf7f4ff.jpg\r\n'
p480
aS'http://www.pol.org/features/riverwatch/safari/images/deermouse.jpg\r\n'
p481
aS'http://www.usoe.k12.ut.us/curr/Science/core/4th/UTP_A/WEBPAGE/category_thumbs/Mammals/deerMouse/IMAGES/DEERMOUSE03.JPG\r\n'
p482
aS'http://www.raydw.com/northern%20grasshopper%20mouse.gif\r\n'
p483
aS'http://upload.wikimedia.org/wikipedia/commons/thumb/a/ab/House_mouse.jpg/200px-House_mouse.jpg\r\n'
p484
aS'http://www.cdc.gov/ncidod/diseases/hanta/hps/hps/graphics/Rodent_040.gif\r\n'
p485
aS'http://www.escape.org/lwm/albums/album99/DeerMouse_2004_1244_20040427.sized.jpg\r\n'
p486
aS'http://www.sou.edu/BIOLOGY/Faculty/Southworth/images/Reithrodontomys.jpg\r\n'
p487
aS'http://www.qub.ac.uk/envres/EarthAirWater/images/prodohl_5.jpg\r\n'
p488
aS'http://dinets.travel.ru/peromguatemalensis.jpg\r\n'
p489
aS'http://www.norphil.co.uk/catalog/images/2478m1.jpg\r\n'
p490
aS'http://static.flickr.com/134/348731334_5875497dfd.jpg\r\n'
p491
aS'http://farm2.static.flickr.com/1080/533238237_d79cf7f4ff.jpg\r\n'
p492
aS'http://biology.swau.edu/museum/images/large/200.jpg\r\n'
p493
aS'http://tolweb.org/tree/ToLimages/Peromyscus_maniculatus0030.100a.jpg\r\n'
p494
aS'http://www.killfireants.com/images/pest/deermouse_med-small.jpg\r\n'
p495
aS'http://www.nau.edu/biology/people/graphics/drickamer_mouse.jpg\r\n'
p496
aS'http://www.life.uiuc.edu/peeb/photogallery/photo31805/whitefootedmouse.jpg\r\n'
p497
aS'http://www.siskiyous.edu/shasta/map/mp/limv.jpg\r\n'
p498
aS'http://www.cdc.gov/ncidod/diseases/hanta/hps/graphics/deermouse_1.gif\r\n'
p499
aS'http://www.turtletrack.org/Issues01/Co12152001/Art/mice.jpg\r\n'
p500
aS'http://www.markwyman.com/pictures/Animals/DeerMouse-LukeyChow.jpg\r\n'
p501
aS'http://www.fs.fed.us/r6/centraloregon/wildlife/species/mammals/images/ro-deermouse-t.jpg\r\n'
p502
aS'http://www.dreckmann-ltda.cl/fumigaciones/imagenes/img_raton1.jpg\r\n'
p503
aS'http://www.acvcsd.org/images/mouse.jpg\r\n'
p504
aS'http://centralpets.com/critter_images/mammals/rodents/ROD_0002492_20010813171050.jpg\r\n'
p505
aS'http://www.pgc.state.pa.us/pgc/lib/pgc/wildlife/photolib/deer_mouse.jpg\r\n'
p506
aS'http://smartideasbydesign.com/images/hungrymouse.jpg\r\n'
p507
aS'http://www.savecrowsnest.com/media/images/photos/wildlife/deer-mouse.jpg\r\n'
p508
aS'http://dinets.travel.ru/pemawinter1.jpg\r\n'
p509
aS'http://www.msha.gov/alerts/hantavirus/hanta1.jpg\r\n'
p510
aS'http://www.rodentbreak.com/album/slides/deermouse6.jpg\r\n'
p511
aS'http://www.bugladyconsulting.com/images/House/mamma%20mouse.JPG\r\n'
p512
aS'http://natureali.org/images/mammals/young%20grasshopper%20mouse%20eating.jpg\r\n'
p513
aS'http://www.mammalogy.org/mil_images/images/mid/1171.jpg\r\n'
p514
aS'http://images.usatoday.com/news/_photos/2004/01/07-mouse-inside.jpg\r\n'
p515
aS'http://wotan.cse.sc.edu/perobase/images/pcalif.jpg\r\n'
p516
aS'http://www.rodentcontrolsupplies.com/kaput_mouse_1.jpg\r\n'
p517
aS'http://static.flickr.com/202/496405100_a0b45bcd78.jpg\r\n'
p518
aS'http://www.hcn.org/allimages/1997/aug18/graphics/970818.024.gif\r\n'
p519
aS'http://www.amazinganimalproductions.com/animals/critters/images/deer_mouse.jpg\r\n'
p520
aS'http://newsletter.dri.edu/1999/winter98-99/deermouse.jpg\r\n'
p521
aS'http://www2.tpwd.state.tx.us/learning/webcasts/caves/images/39_deer_mouse.jpg\r\n'
p522
aS'http://www.sou.edu/BIOLOGY/Faculty/Southworth/images/Peromyscus%20maniculatus.jpg\r\n'
p523
aS'http://www.swpest.com/pestmonth/images/october/mouse.jpg\r\n'
p524
aS'http://www.fws.gov/rockymountainarsenal/News%20at%20the%20Rocky%20Mountain%20Arsenal%20National%20Wildlife%20Refuge_f(1)/Images/smmammal/Pero.jpg\r\n'
p525
aS'http://www.visualsunlimited.com/images/watermarked/305/305759.jpg\r\n'
p526
aS'http://stkctr.biol.sc.edu/AD.jpg\r\n'
p527
aS'http://www.aacutepestcontrol.com/images/new/mice/dead_dr_ms008.jpg\r\n'
p528
aS'http://www.geneticarchaeology.com/Images/Peromyscus_maniculatus.jpg\r\n'
p529
aS'http://www.escape.org/lwm/albums/album155/DeerMouse_2004_1306_20040425_06.thumb.jpg\r\n'
p530
aS'http://www.blistersdicegame.com/mouse.jpg\r\n'
p531
aS'http://www.adiosproducts.com/graphics/mouse4.jpg\r\n'
p532
aS'http://farm1.static.flickr.com/33/57447188_dae7edfc46.jpg\r\n'
p533
aS'http://static.flickr.com/1260/727930517_16bf189f7c.jpg\r\n'
p534
aS'http://www.life.uiuc.edu/peeb/images/whitefootedmouse.jpg\r\n'
p535
aS'http://www.alpinepest.com/images/med_deermouse.jpg\r\n'
p536
aS'http://www.hantavirus.net/hosts/art/deermouse2.jpeg\r\n'
p537
aS'http://www.midmipest.com/images/mouse.jpg\r\n'
p538
aS'http://www.ventura.org/rma/envhealth/programs/vector_control/images/mouse.jpg\r\n'
p539
aS'http://thumb19.webshots.net/t/36/36/6/66/71/2644666710099951519rylTfL_th.jpg\r\n'
p540
aS'http://www.cdc.gov/ncidod/dvrd/spb/images/mice/permani_s.gif\r\n'
p541
aS'http://www.alexandriapestservice.com/gifs/bug/6.jpg\r\n'
p542
aS'http://www.whitman.edu/environmental_studies/JWC/plateredvole.JPG\r\n'
p543
aS'http://troutstreamdesigns.com/OwenBrowns%20JPEGs/DeerMouse.jpg\r\n'
p544
aS'http://www.freewebs.com/mpg/mouse.bmp\r\n'
p545
aS'http://john.moisttowelettemuseum.com/mouse/deadmouse2x.jpg\r\n'
p546
aS'http://edmontonexterminatorsltd.supersites.ca/nss-folder/pictures/house-mouse.jpg\r\n'
p547
aS'http://www.nwf.org/kidzone/customcontent/kidsguides/images/MA0093_1s.jpg\r\n'
p548
aS'http://www.places2visit.co.uk/wikipedia/200px-Lesser.malay.mouse.deer.arp.jpg\r\n'
p549
aS'http://dinets.travel.ru/peromgrandis.jpg\r\n'
p550
aS'http://www.wildlife-art.ca/images/DeerMouse1small.JPG\r\n'
p551
aS'http://www.stolaf.edu/depts/environmental-studies/courses/es-399%20home/es-399-06/projects/craigj/mouse.jpg\r\n'
p552
aS'http://www.btinternet.com/~lambjw/mice/pics/deermouse.gif\r\n'
p553
aS'http://www.siskiyous.edu/shasta/map/mp/limpg.jpg\r\n'
p554
aS'http://farm1.static.flickr.com/32/88477153_92d47b070f.jpg\r\n'
p555
aS'http://www.wendyhood.com/images/anim-deermouse.jpg\r\n'
p556
aS'http://stkctr.biol.sc.edu/pero.jpg\r\n'
p557
aS'http://www.nps.gov/pwr/customcf/apps/CMS_HandF/Pictures/CHIS_deer-mouse2.jpg\r\n'
p558
aS'http://wotan.cse.sc.edu/perobase/images/p_crinit.jpg\r\n'
p559
aS'http://wotan.cse.sc.edu/perobase/images/p_gossyp.jpg\r\n'
p560
aS'http://www2.okstate.edu/pio/deer_mouse.jpg\r\n'
p561
aS'http://static.flickr.com/143/366526042_f0e5e9be40.jpg\r\n'
p562
aS'http://edmontonexterminatorsltd.supersites.ca/nss-folder/pictures/deer-mouse.jpg\r\n'
p563
aS'http://animaldiversity.ummz.umich.edu/site/resources/phil_myers/ADW_mammals_3_4_03/maniculatus6455.jpg/large.jpg\r\n'
p564
aS'http://www.blm.gov/pgdata/etc/medialib/blm/wy/kfo/pics.Par.97490.Image.170.134.1.gif\r\n'
p565
aS'http://www.globalbirdphotos.com/images/zz-animals/deer_mouse/drm1981_01bs_crop.jpg\r\n'
p566
aS'http://dinets.travel.ru/peromeremicus.jpg\r\n'
p567
aS'http://www.poetwill.org/deermouse.jpg\r\n'
p568
aS'http://www.westcentralmosquitoandvector.org/images/Deer%20mouse%20cdc.jpg\r\n'
p569
aS'http://www.americanextermination.com/images/mouse_large.jpg\r\n'
p570
aS'http://www.thisplaceisazoo.com/uploaded/H3597.jpg\r\n'
p571
aS'http://upload.wikimedia.org/wikipedia/commons/thumb/7/7f/White.footed.mouse.with.sucklings.jpg/180px-White.footed.mouse.with.sucklings.jpg\r\n'
p572
aS'http://www.sickofticks.com/images/mouse.jpg\r\n'
p573
aS'http://www.pestworld.org/images/Small%20Images/dermsa~1_sm.jpg\r\n'
p574
aS'http://conabioweb.conabio.gob.mx/bancoimagenes/imagenes/thumbs/thumbs9420.jpg\r\n'
p575
aS'http://farm1.static.flickr.com/28/57449243_fa3fb47516.jpg\r\n'
p576
aS'http://www.neoperceptions.com/fauna/mammals/images/deermouse.jpg\r\n'
p577
aS'http://i25.photobucket.com/albums/c57/nortonw/Mouse-002.jpg\r\n'
p578
aS'http://www.cbc.ca/news/background/health/gfx/deer_mouse_cdc.jpg\r\n'
p579
aS'http://www.bugthug.com/deermouse.gif\r\n'
p580
aS'http://p1k3.com/2006/4/21/zapus_hudsonius_small.jpg\r\n'
p581
aS'http://www.nyfalls.com/wildlife/gallery/mammals/Peromyscus-maniculatus/01.jpg\r\n'
p582
aS'http://www2.biology.ualberta.ca/uamz.hp/mouse2.gif\r\n'
p583
aS'http://theanimalagency.com/animals/critters/images/thumbs/deer_mouse.jpg\r\n'
p584
aS'http://www.animalpictureshq.com/data/thumbnails/52/mouse6.jpg\r\n'
p585
aS'http://farm3.static.flickr.com/2308/1881543306_edd29b1dd3.jpg\r\n'
p586
aS'http://virology-online.com/viruses/deer_mouse.jpg\r\n'
p587
aS'http://upload.wikimedia.org/wikipedia/commons/thumb/5/5e/Mouse_vermin02.jpg/250px-Mouse_vermin02.jpg\r\n'
p588
aS'http://www.pdogecosystemlibrary.org/images/associated-species/deer-mouse.jpg\r\n'
p589
aS'http://www.pgc.state.pa.us/pgc/lib/pgc/wildlife/mammals/deerMice01m.jpg\r\n'
p590
aS'http://www.nps.gov/imr/customcf/apps/CMS_HandF/GreenBoxPics/WHSA_pocket-mouse-A27-34.jpg\r\n'
p591
aS'http://farm2.static.flickr.com/1287/1245450017_43b4329749.jpg\r\n'
p592
aS'http://static.flickr.com/53/132646519_6b2f2507f4.jpg\r\n'
p593
aS'http://static.flickr.com/123/348730366_36d2c1d746.jpg\r\n'
p594
aS'http://stkctr.biol.sc.edu/po.jpg\r\n'
p595
aS'http://farm1.static.flickr.com/155/348729396_54946281ce.jpg\r\n'
p596
aS'http://farm3.static.flickr.com/2150/2182731810_d57d5199c8.jpg\r\n'
p597
aS'http://www.neoperceptions.com/fauna/mammals/images/deermouse10.jpg\r\n'
p598
aS'http://www-cgi.cnn.com/NATURE/9905/25/deer.mice.enn/deermouse2.jpg\r\n'
p599
aS'http://hooah4health.com/environment/diseaseenv/images/deermouse.jpg\r\n'
p600
aS'http://www1.istockphoto.com/file_thumbview_approve/214200/2/istockphoto_214200_rodents_deer_mouse_1.jpg\r\n'
p601
aS'http://farm1.static.flickr.com/33/57449247_39324944e6.jpg\r\n'
p602
aS'http://www.cdc.gov/ncidod/dvrd/spb/images/mice/mailmice/drmous/toxic_ms.bmp\r\n'
p603
aS'http://www.a1ik.com/photos/d/24517-2/IMG_7749.JPG\r\n'
p604
aS'http://www.globalbirdphotos.com/images/zz-animals/deer_mouse/drm1981_01ct.jpg\r\n'
p605
aS'http://static.flickr.com/45/115593624_950b0550be.jpg\r\n'
p606
aS'http://farm2.static.flickr.com/1129/752019210_586bbe8915.jpg\r\n'
p607
aS'http://www.westernexterminator.com/pests/deer_mouse_sm.jpg\r\n'
p608
aS'http://www.escape.org/lwm/albums/album246/DeerMouse_2004_5553_4_20041029_05.sized.jpg\r\n'
p609
aS'http://farm1.static.flickr.com/161/393761986_4f2c7d088c.jpg\r\n'
p610
aS'http://www.cdc.gov/rodents/images/DMousev2.jpg\r\n'
p611
aS'http://www.csaffluents.qc.ca/animalier/dessins/soursylv.jpg\r\n'
p612
aS'http://www.mammalogy.org/mil_images/images/mid/1175.jpg\r\n'
p613
aS'http://www.royalalbertamuseum.ca/vcollects/_images/demo1.jpg\r\n'
p614
aS'http://www.smokymountainsvisitorsguide.com/wildlife/pics/deermouse.jpg\r\n'
p615
aS'http://www.okstate.edu/ceat/iem/home/images/deer_mouse.gif\r\n'
p616
aS'http://www.pc.gc.ca/pn-np/nl/grosmorne/images/mon_sm_mammal1.jpg\r\n'
p617
aS'http://www.sialis.org/images/mousey.jpg\r\n'
p618
aS'http://thumb8.webshots.net/s/thumb2/3/94/63/153639463fnaNLc_th.jpg\r\n'
p619
aS'http://www.eastsideexterminators.com/images/house_mouse.jpg\r\n'
p620
aS'http://www.ehso.com/~ehsocom/ehshome/images/msfests.jpg\r\n'
p621
aS'http://www.fs.fed.us/database/feis/animals/mammal/pebo/animal.jpg\r\n'
p622
aS'http://www.petoftheday.com/archive/2001/December/05.jpg\r\n'
p623
aS'http://wotan.cse.sc.edu/perobase/images/p_leuco.jpg\r\n'
p624
aS'http://farm3.static.flickr.com/2414/2097934522_960820c992.jpg\r\n'
p625
aS'http://farm2.static.flickr.com/1171/1093870341_23bd0b5c55.jpg\r\n'
p626
aS'http://www.bbc.co.uk/nature/wildfacts/factfiles/images_small/california_mouse01_sm.jpg\r\n'
p627
aS'http://www.copesan.com/images/Deer%20mouse.gif\r\n'
p628
aS'http://farm1.static.flickr.com/194/509791609_b0cc8d1f41.jpg\r\n'
p629
aS'http://static.flickr.com/67/245160706_8855309a1d.jpg\r\n'
p630
aS'http://wotan.cse.sc.edu/perobase/images/polionotus_po.jpg\r\n'
p631
aS'http://www.eou.edu/~kantell/denny%20deermouse.jpg\r\n'
p632
aS'http://wwwtest.cdc.gov/ncidod/diseases/hanta/hps/graphics/peromyscus.jpg\r\n'
p633
aS'http://farm1.static.flickr.com/150/401279069_700e7cefe6.jpg\r\n'
p634
aS'http://birdandhike.com/Wildlife/Mamm/06Rod/06_Cri/Peromyscus/IMG_0993a.jpg\r\n'
p635
aS'http://www.nps.gov/pwr/customcf/apps/CMS_HandF/Pictures/CHIS_CHIS_deer-mouse.jpg\r\n'
p636
aS'http://earthobservatory.nasa.gov/Study/Hanta/Images/deermouse.jpg\r\n'
p637
aS'http://www.simpson.edu/~parmelee/research/sPeromyscusPleasantville7June2005.jpg\r\n'
p638
aS'http://www.mv.com/ipusers/lsg/Pix/Critters/Housemouse2b-Aviva.jpg\r\n'
p639
aS'http://usmo4.discoverlife.org/nh/tx/Vertebrata/Mammalia/Muridae/Peromyscus/maniculatus/images/Peromyscus_maniculatus.320.jpg\r\n'
p640
aS'http://www.raydw.com/deer%20mouse.gif\r\n'
p641
aS'http://www.washington.edu/burkemuseum/collections/mammalogy/mamwash/Images/pmanicthumb.jpg\r\n'
p642
aS'http://www.sitemouse.com/users/amiss/mouse4.jpg\r\n'
p643
aS'http://john.moisttowelettemuseum.com/mouse/deadmousex.jpg\r\n'
p644
aS'http://static.flickr.com/33/57449247_39324944e6.jpg\r\n'
p645
aS'http://its.claremontmckenna.edu/TeachingTechnology/Multimedia/icon_galleries/science/thumbnails/deermouse.jpg\r\n'
p646
aS'http://brainmuseum.org/specimens/rodentia/deermousewht/whtftdmouse.jpg\r\n'
p647
aS'http://www.niaid.nih.gov/final/infds/images/mouse.jpg\r\n'
p648
aS'http://www.tws-west.org/gw/images/56.jpg\r\n'
p649
aS'http://newmedia.funnyjunk.com/pictures/mousehumping.jpg\r\n'
p650
aS'http://www.slostateparks.com/nature/wildlife/images/icons/deer_mouse.jpg\r\n'
p651
aS'http://www.depts.ttu.edu/communications/vistas/archive/01-winter/images/airborne-1.jpg\r\n'
p652
aS'http://www.rottler.com/pest-library/images/DEER%20MOUSE2.jpg\r\n'
p653
aS'http://www.deratchan.com/adminlogin/zoopicturegallery/timage39.jpg\r\n'
p654
aS'http://www.mountaintimes.net/images/DeerMouse_WEB_small.jpg\r\n'
p655
aS'http://farm1.static.flickr.com/33/99974650_aaadf149ea.jpg\r\n'
p656
aS'http://www.killfireants.com/images/pest/Deer_mouse_1.jpg\r\n'
p657
aS'http://cache.eb.com/eb/image?id=5159&rendTypeId=4\r\n'
p658
aS'http://dinets.travel.ru/perombullatus.jpg\r\n'
p659
aS'http://farm3.static.flickr.com/2356/2197836052_8e4d8ec323.jpg\r\n'
p660
aS'http://farm1.static.flickr.com/175/380704487_17ae0a93cf.jpg\r\n'
p661
aS'http://www.escape.org/lwm/albums/album155/DeerMouse_2004_1306_20040425_01.sized.jpg\r\n'
p662
aS'http://animaldiversity.ummz.umich.edu/site/resources/phil_myers/ADW_mammals_3_4_03/maniculatus6459.jpg/large.jpg\r\n'
p663
aS'http://static.flickr.com/71/192208745_be10c0951c.jpg\r\n'
p664
aS'http://static.flickr.com/198/496404402_a0400a8360.jpg\r\n'
p665
aS'http://whyfiles.org/shorties/131mouse_evolution/images/tree_mouse2sm.jpg\r\n'
p666
aS'http://www.borealforest.org/zoo/deer_mouse.jpg\r\n'
p667
aS'http://www.sankey.ws/mammals6.jpg\r\n'
p668
aS'http://upload.wikimedia.org/wikipedia/commons/thumb/0/01/Rattus_norvegicus_1.jpg/200px-Rattus_norvegicus_1.jpg\r\n'
p669
aS'http://www.agpix.com/catalog/AGPix_elinorosborn/AGPix_elinorosborn_0233.jpg\r\n'
p670
aS'http://biology.swau.edu/museum/images/large/219.jpg\r\n'
p671
aS'http://www.devils-punchbowl.com/images/woodrat.jpg\r\n'
p672
aS'http://farm1.static.flickr.com/10/13592548_ad08485614.jpg\r\n'
p673
aS'http://www.ptv.com.pk/images/kidscorner/mammal20.jpg\r\n'
p674
aS'http://farm1.static.flickr.com/172/376290470_98bb9c9a1f.jpg\r\n'
p675
aS'http://www.dreckmann-ltda.cl/fumigaciones/imagenes/mouseS.jpg\r\n'
p676
aS'http://www.painetworks.com/photos/ev/ev0076.JPG\r\n'
p677
aS'http://www.nps.gov/tapr/naturescience/upload/West_Harvest_Mouse.gif\r\n'
p678
aS'http://farm1.static.flickr.com/23/27710172_cfd03ae3f5.jpg\r\n'
p679
aS'http://kob.com/kobtvimages/hanta_mouse.jpg\r\n'
p680
aS'http://www.cdc.gov/ncidod/eid/vol5no1/mills1.1t.jpg\r\n'
p681
aS'http://www.escape.org/lwm/albums/album155/DeerMouse_2004_1306_20040425_03.sized.jpg\r\n'
p682
aS'http://www.siskiyous.edu/shasta/map/mp/lidm.jpg\r\n'
p683
aS'http://thumb2.webshots.net/t/18/19/4/55/60/2804455600084744202iXVAiN_th.jpg\r\n'
p684
aS'http://www.animaltrek.com/mammals/mouse/tn_001_jpg.jpg\r\n'
p685
aS'http://nrs.ucdavis.edu/Quail/Images/mammals/Deer%20Mouse.jpg\r\n'
p686
aS'http://farm1.static.flickr.com/21/27710170_0d0ffd351c.jpg\r\n'
p687
aS'http://srv2.lycoming.edu/~BROUSSAR/PV.jpg\r\n'
p688
aS'http://volcano.und.edu/vwdocs/msh/gifs/5065s.gif\r\n'
p689
aS'http://www.fancymice.info/deermouse.jpg\r\n'
p690
aS'http://static.flickr.com/1164/728791178_e96d6cd65c.jpg\r\n'
p691
aS'http://fresc.usgs.gov/olympic/research/images/mouse.jpg\r\n'
p692
aS'http://www.mnh2.si.edu/education/mna/images/images/825132014184064.jpg\r\n'
p693
aS'http://www.islandconservation.org/images/pmanacap.jpg\r\n'
p694
aS'http://natureali.org/images/mammals/deer_mouse_on_dark_rock.jpg\r\n'
p695
aS'http://dine.sanjuan.k12.ut.us/heritage/land/animals/mammals/images/TNdeermouse.jpg\r\n'
p696
aS'http://www.rudepest.com/graphics/bugfacts/deermouse.jpg\r\n'
p697
aS'http://www.cdc.gov/NCIDOD/DISEASES/HANTA/HPS/graphics/rice-rat.jpg\r\n'
p698
aS'http://farm3.static.flickr.com/2149/1880709433_95d0d0b01f.jpg\r\n'
p699
aS'http://www.escape.org/lwm/albums/album155/DeerMouse_2004_1306_20040425_04.thumb.jpg\r\n'
p700
aS'http://wwwtest.cdc.gov/ncidod/dvrd/spb/images/mice/mailmice/drmous/dr_mouse.bmp\r\n'
p701
aS'http://farm1.static.flickr.com/172/388706401_c5fbd266db.jpg\r\n'
p702
aS'http://www.uwex.edu/ces/gypsymoth/images/thumb/DeerMouse1-AD.jpg\r\n'
p703
aS'http://www.washington.edu/burkemuseum/collections/mammalogy/mamwash/Images/pepathumb.jpg\r\n'
p704
aS'http://disabilityworld.com/co/pictures/mousedeer.jpg\r\n'
p705
aS'http://www.howtogetridofstuff.com/images/howtogetridofmice/deer-mouse.jpg\r\n'
p706
aS'http://www.bozeman.k12.mt.us/wildlife/photos_lead/deermousebutton.jpeg\r\n'
p707
aS'http://forces.si.edu/images/elnino/deerMouseLarge.jpg\r\n'
p708
aS'http://www.aamr.org.ar/cms/archivos/secciones/neumoclinica/images/hantavirus/image005.jpg\r\n'
p709
aS'http://static.flickr.com/64/164459477_11b08f1284.jpg\r\n'
p710
aS'http://static.flickr.com/130/349716796_7c6161f706.jpg\r\n'
p711
aS'http://www.gnb.ca/0053/images/deermous.gif\r\n'
p712
aS'http://yampavalley.info/media/pets/tn_0_7.jpg\r\n'
p713
aS'http://www1.istockphoto.com/file_thumbview_approve/1251916/2/istockphoto_1251916_archie_deer_mouse_419.jpg\r\n'
p714
aS'http://fwp.mt.gov/content/5627,200,110.jpg\r\n'
p715
aS'http://www.keweenawnow.com/news/clim_change2_07_06/images/wfmouse3b.jpg\r\n'
p716
aS'http://www.robischongallery.com/publish/worksimages/web-kitchel-whitefooteddeermouse-29x29_LG.jpg\r\n'
p717
aS'http://www.ecologyasia.com/images-k-z/lesser_mousedeer_full.jpg\r\n'
p718
aS'http://static.flickr.com/35/103766844_e0eec04fba.jpg\r\n'
p719
aS'http://www.uwo.ca/biology/Faculty/millar/images/deermouse.jpg\r\n'
p720
aS'http://safety.dri.edu/HantaVirus/images/hv074bm.jpg\r\n'
p721
aS'http://static.flickr.com/145/349717071_5119bc6cb9.jpg\r\n'
p722
aS'http://aacutepestcontrol.com/images/deermouse.gif\r\n'
p723
aS'http://www.scitogo.com/sherman/Endeavor/NorthwesternDeerMouse.jpg\r\n'
p724
aS'http://farm3.static.flickr.com/2218/1583803158_6ed05ea2a0.jpg\r\n'
p725
aS'http://www.snowwowl.com/images/animals/land/mouse.jpg\r\n'
p726
aS'http://www.neoperceptions.com/fauna/mammals/images/deermouse13.jpg\r\n'
p727
aS'http://www.wizzymouse.com/resultimages/deermouse.jpg\r\n'
p728
aS'http://www.westopthebugs.com/pictures/pests/HouseMouseLg.jpg\r\n'
p729
aS'http://www.biosci.ohio-state.edu/~jharder/virtuallab/photos/40,%20Skin%5bsmall%5d.jpg\r\n'
p730
aS'http://monte.k12.co.us/delta/ola/StudentWebs/Hantavirus/DEERMOUSE.jpg\r\n'
p731
aS'http://static.flickr.com/117/302904996_1d3f61b486.jpg\r\n'
p732
aS'http://uwadmnweb.uwyo.edu/VetSci/Research/VesStom.jpg\r\n'
p733
aS'http://ladywildlife.com/animal/deermouse2.jpg\r\n'
p734
aS'http://farm1.static.flickr.com/45/132646520_41ab644546.jpg\r\n'
p735
aS'http://www.blm.gov/ca/news/newsbytes/2007/images07/269/t_deermouse_nps-JohnGood.jpg\r\n'
p736
aS'http://www.pestmaster.com/residential/images/deer-mouse.gif\r\n'
p737
aS'http://krlphotography.typepad.com/photos/mammals/babydeermouse-thumb.jpg\r\n'
p738
aS'http://dinets.travel.ru/peromstirtoni.jpg\r\n'
p739
aS'http://beta.darp.aspensys.com/southwest/amtrader/images/amtrdr10.jpg\r\n'
p740
aS'http://www.rhodes.edu/biology/glindquester/viruses/pagespass/hanta/mouse1.gif\r\n'
p741
aS'http://www.nysm.nysed.gov/research_collections/research/labs/mammalogy/education/mam_picts/peromyscus_leucopus.jpg\r\n'
p742
aS'http://itc.boisestate.edu/mediashowcase/media/munger/thumb_069_onychomys_leucogaster.jpg\r\n'
p743
aS'http://www.selfcateringcottagesdevon.co.uk/graphics/woodmouse.jpg\r\n'
p744
aS'http://ttt.pugetsoundcenter.org/projects/1998/web/animals/Images/mouse.gif\r\n'
p745
aS'http://www.friendsofsaguaro.org/mouse-deer.jpg\r\n'
p746
aS'http://www.pgc.state.pa.us/pgc/lib/pgc/wildlife/photolib/thumb/deer_mouse_sm.jpg\r\n'
p747
aS'http://fhtms.sbschools.net/users/bwight/2002/mollyf/deer%20mouse%20in%20the%20dirt.gif\r\n'
p748
aS'http://wdfw.wa.gov/gallery2/main.php?g2_view=core.DownloadItem&g2_itemId=54482&g2_serialNumber=3\r\n'
p749
aS'http://www.bugladyconsulting.com/images/House/DSCN3827.JPG\r\n'
p750
aS'http://www.jpchemical.com/newhampshirepestsclusterflies_clip_image003.jpg\r\n'
p751
aS'http://www.forestlakesfire.org/EMS/deermouse.gif\r\n'
p752
aS'http://farm1.static.flickr.com/153/349716013_34ea59847e.jpg\r\n'
p753
aS'http://farm1.static.flickr.com/212/496436289_f26af5f8c5.jpg\r\n'
p754
aS'http://www.hamiltonnature.org/habitats/habitat_images/deer_mouse.jpg\r\n'
p755
aS'http://www.cabq.gov/bdm/images/Mice.jpg\r\n'
p756
aS'http://www.no-pest.com/Deermouse.JPG\r\n'
p757
aS'http://farm1.static.flickr.com/40/83892085_4d56eba4a5.jpg\r\n'
p758
aS'http://farm2.static.flickr.com/1192/1388457821_aeb5de76c2.jpg\r\n'
p759
aS'http://seattletimes.nwsource.com/ABPub/2006/07/10/2003117917.jpg\r\n'
p760
aS'http://farm1.static.flickr.com/145/401279064_ff87616853.jpg\r\n'
p761
aS'http://ladywildlife.com/animal/deermouse1.jpg\r\n'
p762
aS'http://www.fcps.k12.va.us/ChesterbrookES/Discovery%20Gardens%204%20Web/Images/mouse.jpg\r\n'
p763
aS'http://www.faqs.org/health/images/uchr_07_img0741.jpg\r\n'
p764
aS'http://www.neverpay5or6.com/san_joaquin_files/mammals/deermouse.jpg\r\n'
p765
aS'http://www.unites.uqam.ca/crcec/images/PmanMomnursing.jpg\r\n'
p766
aS'http://www.stikine.org/sri_links_files/mouse_files/deer-mouse-3.jpg\r\n'
p767
aS'http://bp3.blogger.com/_UV9jSNGDpqU/RdvgVCJyC5I/AAAAAAAAAUg/Ovht-2cFaek/s400/Pero1535.jpg\r\n'
p768
aS'http://www.smcmad.org/pics/diseases/deermouse_pmanic.gif\r\n'
p769
aS'http://faculty.ucr.edu/~chappell/INW/mammals/deermouse2.jpg\r\n'
p770
aS'http://animaldiversity.ummz.umich.edu/site/resources/phil_myers/classic/pmgjuv.jpg/badge.jpg\r\n'
p771
aS'http://www.braveheartpc.com/a_deer_mouse02.jpg\r\n'
p772
aS'http://www.insectax.com/images/deermouse.jpg\r\n'
p773
aS'http://farm2.static.flickr.com/1111/727931687_5dfada7abf.jpg\r\n'
p774
aS'http://www1.umn.edu/umnnews/img/assets/11500/deermouse.jpg\r\n'
p775
aS'http://www.fs.fed.us/r6/centraloregon/wildlife/species/mammals/images/ro-canyonmouse.jpg\r\n'
p776
aS'http://farm1.static.flickr.com/196/509767384_6aef8f4408.jpg\r\n'
p777
aS'http://www.nps.gov/mwr/customcf/apps/CMS_HandF/GreenBoxPics/WICA_Deer_Mouse.jpg\r\n'
p778
aS'http://www.sciencedaily.com/images/2007/10/071019145443.jpg\r\n'
p779
aS'http://www.saskschools.ca/~gregory/animals/mice/harvmse.jpg\r\n'
p780
aS"http://www.stolaf.edu/depts/environmental-studies/courses/es-399%20home/es-399-05/Projects/Jared's%20Senior%20Seminar%20Research%20Page/Images/whitefootedmouse1.jpg\r\n"
p781
aS'http://farm1.static.flickr.com/12/16709536_4f13aa5569.jpg\r\n'
p782
aS'http://www.gpnc.org/images/jpegs/animals/moused.jpg\r\n'
p783
aS'http://www.cdc.gov/rodents/images/PLuecopus.jpg\r\n'
p784
aS'http://www.tommyersphotography.com/data/photos/ma00016.jpg\r\n'
p785
aS'http://farm1.static.flickr.com/31/37839876_d9dbca35df.jpg\r\n'
p786
aS'http://www.agpix.com/catalog/AGPix_elinorosborn/AGPix_elinorosborn_0237.jpg\r\n'
p787
aS'http://lh3.google.com/_8q7EVcNdaTw/ROyvUqP8ABI/AAAAAAAAAYo/ySjOAShPPJ8/s800/DSCF0371.JPG\r\n'
p788
aS'http://islandfox.org/uploaded_images/deermouse-769326.jpg\r\n'
p789
aS'http://www.fs.fed.us/r6/centraloregon/wildlife/species/mammals/images/ro-deermouse.jpg\r\n'
p790
aS'http://upload.wikimedia.org/wikipedia/commons/thumb/4/42/Deer_mouse,_Peromyscus_maniculatus_8360_lores.jpg/300px-Deer_mouse,_Peromyscus_maniculatus_8360_lores.jpg\r\n'
p791
aS'http://www.shaldonwildlifetrust.org.uk/images/lh_mouse_deer1.jpg\r\n'
p792
aS'http://www.science-art.com/gallery/50/50_12152007183540_small.jpg\r\n'
p793
aS'http://www.hiltonpond.org/images/MouseWhiteFootedHFoot01.jpg\r\n'
p794
aS'http://www.animalpicturesarchive.com/Thumb05/thumb-1152247073.jpg\r\n'
p795
aS'http://farm1.static.flickr.com/153/401524551_cfb1721782.jpg\r\n'
p796
aS'http://farm1.static.flickr.com/84/282380766_72cb4d5b95.jpg\r\n'
p797
aS'http://dinets.travel.ru/pena3.jpg\r\n'
p798
aS'http://animaldiversity.ummz.umich.edu/site/resources/phil_myers/classic/pmg_in_a_hole.jpg/large.jpg\r\n'
p799
aS'http://static.flickr.com/2299/2055604074_33509db37c.jpg\r\n'
p800
aS'http://secretunicornsforum.com/forum/images/avatars/47522144845b44f983f116.gif\r\n'
p801
aS'http://www.state.wv.us/ot/images/pictures/illus/mouse_computer.jpg\r\n'
p802
aS'http://www.ehso.com/images0407/hantav1.jpg\r\n'
p803
aS'http://www.stutters.net/shutter/malaysia_singapore/zoo_mousedeer.jpg\r\n'
p804
aS'http://static.flickr.com/150/426028704_38050021b4.jpg\r\n'
p805
aS'http://www.colossusblog.com/mt/archives/images/giselle10.jpg\r\n'
p806
aS'http://www.killfireants.com/images/pest/House_mouse-small.jpg\r\n'
p807
aS'http://www.epestsupply.com/images/bugs/dmouse.jpg\r\n'
p808
aS'http://www.jagdalpur.com/images/mousedeer.jpg\r\n'
p809
aS'http://dinets.travel.ru/perommelanophrys.jpg\r\n'
p810
aS'http://farm1.static.flickr.com/103/296032702_efcf42541f.jpg\r\n'
p811
aS'http://www.aach.net/apm/images/deermouse.jpg\r\n'
p812
aS'http://www.stoptermites.com/images/deermouse.jpg\r\n'
p813
aS'http://www.animaltrek.com/mammals/mouse/tn_004_jpg.jpg\r\n'
p814
aS'http://www.rideau-info.com/local/p_dmouse.jpg\r\n'
p815
aS'http://www.fs.fed.us/pnw/mtsthelens/photo-gallery/photos/images/cc-Peromyscus.jpg\r\n'
p816
aS'http://www.escape.org/lwm/albums/album155/DeerMouse_2004_1306_20040425_02.thumb.jpg\r\n'
p817
aS'http://www.esf.edu/aec/adks/mammals/images/webpema_juv.jpg\r\n'
p818
aS'http://www.rainforest-orchids.co.uk/USERIMAGES/Microcebus%20murinus%20-%20Grey%20Mouse%20Lemur%20(LC).JPG\r\n'
p819
aS'http://www.websters-dictionary-online.org/coreimages/photos/z/zans_10242.thm.jpg\r\n'
p820
aS'http://dinets.travel.ru/pemawinter2.jpg\r\n'
p821
aS'http://www.healthmedialab.com/images/sub/exhibit/deermouse_s.jpg\r\n'
p822
aS'http://www.hastingsreserve.org/Mammals/MouseCorral/PeromyscusLeucopusL_Master.jpg\r\n'
p823
aS'http://farm2.static.flickr.com/1372/833070466_f5ce7d37e3.jpg\r\n'
p824
aS'http://www.pgc.state.pa.us/pgc/lib/pgc/wildlife/mammals/redVole01m.jpg\r\n'
p825
aS'http://dinets.travel.ru/pebo3.jpg\r\n'
p826
aS'http://www.naturealmanac.com/archive/ticks/pics/deer_mouse_tn.jpg\r\n'
p827
aS'http://farm1.static.flickr.com/228/462655247_88f7adf9ae.jpg\r\n'
p828
aS'http://www.rosepestcontrol.com/filebin/pest/deer_mouse.jpg\r\n'
p829
aS'http://www.mrtv3.net.mm/images/zog25.jpg\r\n'
p830
aS'http://dinets.travel.ru/peromaztecus.jpg\r\n'
p831
aS'http://www.noahsanimalfigurines.com/catalog/images/ha/4111_ElephMouse.jpg\r\n'
p832
aS'http://fhtms.sbschools.net/users/bwight/2002/mollyf/deer_mouse_and_babies.jpg\r\n'
p833
aS'http://static.flickr.com/167/476716107_5c8fadca61.jpg\r\n'
p834
aS'http://www.chieftain.org/archive/2005/apr/7/newsdeermouse.jpg\r\n'
p835
aS'http://www.tnpest.com/public/images/350/deermouse1.jpg\r\n'
p836
aS'http://dwrcdc.nr.utah.gov/rsgis2/images/Photos/peromani.jpg\r\n'
p837
aS'http://farm2.static.flickr.com/1282/1388215767_6da9601044.jpg\r\n'
p838
aS'http://www.icu90ucme.com/images/vertebrate/mammals/House%20mouse1.jpg\r\n'
p839
aS'http://www.k-state.edu/organismic/images/prairie_deer_mouse1_small.jpg\r\n'
p840
aS'http://www.visualsunlimited.com/images/watermarked/426/426119.jpg\r\n'
p841
aS'http://www.lincolnne.com/nonprofit/wrt/WRT990502DeerMouse2.jpg\r\n'
p842
aS"http://www.stolaf.edu/depts/environmental-studies/courses/es-399%20home/es-399-05/Projects/Jared's%20Senior%20Seminar%20Research%20Page/Images/deermouse3.jpg\r\n"
p843
aS'http://www.visualsunlimited.com/images/watermarked/305/305781.jpg\r\n'
p844
aS'http://static.flickr.com/28/57449243_fa3fb47516.jpg\r\n'
p845
aS'http://natureali.org/images/backyard/deer_mouse_c_Alison_Sheehey.JPG\r\n'
p846
aS'http://www.mammalogy.org/mil_images/images/mid/1174.jpg\r\n'
p847
aS'http://farm1.static.flickr.com/98/208100376_915cdb0b5b.jpg\r\n'
p848
aS'http://www.escape.org/lwm/albums/album246/DeerMouse_2004_5553_4_20041029_01.thumb.jpg\r\n'
p849
aS'http://dinets.travel.ru/peromdifficilis.jpg\r\n'
p850
aS'http://www.visualsunlimited.com/images/watermarked/305/305762.jpg\r\n'
p851
aS'http://www.webearthonline.com/images/deer_mouse_1.jpg\r\n'
p852
aS'http://www.sitemouse.com/users/amiss/mouse3.jpg\r\n'
p853
aS'http://www.visualsunlimited.com/images/watermarked/305/305761.jpg\r\n'
p854
aS'http://www.esf.edu/aec/adks/mammals/images/webleaf_mouse.jpg\r\n'
p855
aS'http://dinets.travel.ru/peromleucopus.jpg\r\n'
p856
aS'http://magickcanoe.com/mammals/deer-mouse-1-small.jpg\r\n'
p857
aS'http://www.pestrite.com/images/rodents/deer_mouse.jpg\r\n'
p858
aS'http://bp0.blogger.com/_BbKm1xAlkf4/Rko_xoDqjvI/AAAAAAAAAJw/CQBgPXspS8s/s320/Peromyscus+truei.jpg\r\n'
p859
aS'http://farm2.static.flickr.com/1374/852384630_ce1ea3311c.jpg\r\n'
p860
aS'http://farm1.static.flickr.com/22/37840668_1a102c73b9.jpg\r\n'
p861
aS'http://static.flickr.com/216/509767318_609ef8a1a9.jpg\r\n'
p862
aS'http://redpath-museum.mcgill.ca/Qbp/Images/mammals/mouse,deer.jpg\r\n'
p863
aS'http://dinets.travel.ru/liomysirroratus.jpg\r\n'
p864
aS'http://grist-staging.electricembers.net/news/maindish/2005/02/25/deer_mouse.jpg\r\n'
p865
aS'http://farm2.static.flickr.com/1392/832253188_f6a5e87b66.jpg\r\n'
p866
aS'http://farm1.static.flickr.com/143/401524553_44712f5e50.jpg\r\n'
p867
aS'http://www.petshub.com/forums/image.php?u=2021&dateline=1118727822\r\n'
p868
aS'http://farm2.static.flickr.com/1420/831383107_949cba8bd0.jpg\r\n'
p869
aS'http://www.scitogo.com/sherman/Discovery/NorthwesternDeerMouse.jpg\r\n'
p870
aS'http://idsc.nih.go.jp/idwr/kansen/k03/k03_26/kansen_01.jpg\r\n'
p871
aS'http://farm3.static.flickr.com/2049/2182471365_be07bc6c5a.jpg\r\n'
p872
aS'http://upload.wikimedia.org/wikipedia/commons/thumb/4/42/Deer_mouse,_Peromyscus_maniculatus_8360_lores.jpg/120px-Deer_mouse,_Peromyscus_maniculatus_8360_lores.jpg\r\n'
p873
aS'http://www.washington.edu/burkemuseum/collections/mammalogy/mamwash/Images/pmanic.jpg\r\n'
p874
aS'http://www.pia.gov.ph/album/phi/phi010.jpg\r\n'
p875
aS'http://farm1.static.flickr.com/101/296964024_1964ea6cba.jpg\r\n'
p876
aS'http://www.wildsingapore.per.sg/discovery/animalpic/mousedeer3.JPG\r\n'
p877
aS'http://www.nmc.edu/~koverbaugh/bio270a/Photos/Deer%20Mouse.jpg\r\n'
p878
aS'http://farm1.static.flickr.com/184/393763178_2a036fa0dc.jpg\r\n'
p879
aS'http://www.weforanimals.com/free-pictures/wild-animals/mouses/1/Deer%20Mouse%20II;%20John%20Good%20-%20NPS%20Photo.jpg\r\n'
p880
aS'http://biology.swau.edu/museum/images/large/246.jpg\r\n'
p881
aS'http://farm1.static.flickr.com/157/348732385_30c3b10c43.jpg\r\n'
p882
aS'http://img64.photobucket.com/albums/v195/geinus182/Dead/dead_mouse.jpg\r\n'
p883
aS'http://www-bml.ucdavis.edu/bmr/images/peromyscus.jpg\r\n'
p884
aS'http://fhtms.sbschools.net/users/bwight/2003/Anna%20L/Mammal/deermouse%20going%20into%20home.jpg\r\n'
p885
aS'http://biology.swau.edu/museum/images/large/212.jpg\r\n'
p886
aS'http://www.yakzooex.narod.ru/new/food/photo/pman.jpg\r\n'
p887
aS'http://wotan.cse.sc.edu/perobase/images/p_manicu.jpg\r\n'
p888
aS'http://www.scimetricsltd.com/images/mouse.jpg\r\n'
p889
aS'http://www.pbs.org/opb/intimatestrangers/friends/deermouse.jpg\r\n'
p890
aS'http://animaldiversity.ummz.umich.edu/site/resources/phil_myers/classic/peromyscus_leucopus_37.jpg/button.jpg\r\n'
p891
aS'http://capoziogallery.com/Jamison/images/Mouse.jpg\r\n'
p892
aS'http://brainmuseum.org/Specimens/rodentia/deermousecact/cactusmouse.jpg\r\n'
p893
aS'http://volcano.und.nodak.edu/vwdocs/msh/gifs/3644.gif\r\n'
p894
aS'http://www.wwhd.org/TLD_CD/images/mouse6.jpg\r\n'
p895
aS'http://static.flickr.com/143/380703690_1b421abc07.jpg\r\n'
p896
aS'http://www.eaglelawnandpest.com/pest_img/deermouse.gif\r\n'
p897
aS'http://static.flickr.com/30/57449241_9220333a6a.jpg\r\n'
p898
aS'http://dinets.travel.ru/zapus2.jpg\r\n'
p899
aS'http://www.creepycrawlythings.com/images/library-mice.jpg\r\n'
p900
aS'http://www.uleth.ca/vft/crowsnest/meadowvole.jpg\r\n'
p901
aS'http://www.ourgardengang.com/images/DeerMouse.jpg\r\n'
p902
aS'http://www.biolib.cz/IMG/THN/_33079.jpg\r\n'
p903
aS'http://farm1.static.flickr.com/92/233494575_764604c02c.jpg\r\n'
p904
aS'http://farm1.static.flickr.com/171/439976944_b194153806.jpg\r\n'
p905
aS'http://farm2.static.flickr.com/1009/1347702265_cfa34626ec.jpg\r\n'
p906
aS'http://farm3.static.flickr.com/2144/2058760688_048f0767ae.jpg\r\n'
p907
aS'http://farm1.static.flickr.com/11/14339083_f21c2025a6.jpg\r\n'
p908
aS'http://www.victorpest.com/new_photos/deer_mice.jpg\r\n'
p909
aS'http://www.denvergov.org/Portals/245/images/EH_mother_deer_mouse.jpg\r\n'
p910
aS'http://farm2.static.flickr.com/1060/1200865994_577ebf5c14.jpg\r\n'
p911
aS'http://dinets.travel.ru/chhi3.jpg\r\n'
p912
aS'http://www.animalpictureshq.com/data/thumbnails/52/deermouse2.jpg\r\n'
p913
aS'http://i120.photobucket.com/albums/o189/KreeAter/MouseDeer.jpg\r\n'
p914
aS'http://www.borealforest.org/zoo/deer_mouse.gif\r\n'
p915
aS"http://www.stolaf.edu/depts/environmental-studies/courses/es-399%20home/es-399-05/Projects/Jared's%20Senior%20Seminar%20Research%20Page/Images/pvole2.jpg\r\n"
p916
aS'http://farm3.static.flickr.com/2026/1824274995_f3c13a6021.jpg\r\n'
p917
aS'http://www.dewittpestcontrol.com/deer_mouse.jpg\r\n'
p918
aS'http://srv2.lycoming.edu/~BROUSSAR/Mouse%20Trapping%20Jan%2007%20004.jpg\r\n'
p919
aS'http://farm3.static.flickr.com/2101/2180023044_1b3875c2e8.jpg\r\n'
p920
aS'http://forces.si.edu/images/elnino/deerMouse.jpg\r\n'
p921
aS'http://www.nsf.gov/od/lpa/nsf50/nsfoutreach/img/jpgs_n50/26drmc.jpg\r\n'
p922
aS'http://www.nrri.umn.edu/worms/forest/images/deermouse.jpg\r\n'
p923
aS'http://www.chieftain.com/archive/2007/jul/14/newsdeermouse.jpg\r\n'
p924
aS'http://student.ucr.edu/~gruss001/deermouse3.jpg\r\n'
p925
aS'http://sfaschool.org/Old_SFA_SITE/GradePages/Grade%203-207/Rainforest%20Project%20207/May2003/MCHEVROTAINS2003_files/image001.gif\r\n'
p926
aS"http://www.stolaf.edu/depts/environmental-studies/courses/es-399%20home/es-399-05/Projects/Jared's%20Senior%20Seminar%20Research%20Page/Images/deerandwhitemouse1.jpg\r\n"
p927
aS'http://www.shaldonwildlifetrust.org.uk/images/lh_acouchi_nov06.jpg\r\n'
p928
aS'http://news.bbc.co.uk/olmedia/195000/images/_199143_mouse_150.jpg\r\n'
p929
aS'http://www.stoller-eser.com/weedawareness/images/MouseCloseup.jpg\r\n'
p930
aS'http://www.slostateparks.com/nature/wildlife/images/deer_mouse.jpg\r\n'
p931
aS'http://www.med.upenn.edu/tcmf/graphics/misc_graphics/three_mice_lg.jpg\r\n'
p932
aS'http://upload.wikimedia.org/wikipedia/commons/thumb/d/db/Peromyscus_maniculatus.png/800px-Peromyscus_maniculatus.png\r\n'
p933
aS'http://public.carnet.hr/XIIIgim/pictures/rodents/chihuahuan_grasshopper_mouse.jpg\r\n'
p934
aS'http://www.mmcri.org/lyme/images/Mouse.jpg\r\n'
p935
aS'http://www.catskillmountainclub.org/images/photos/thumbs/deermouse.jpg\r\n'
p936
aS'http://www.whitman.edu/environmental_studies/JWC/platedeermouse.JPG\r\n'
p937
aS'http://farm1.static.flickr.com/171/469616150_dff2be37d8.jpg\r\n'
p938
aS'http://p1k3.com/2006/4/21/zapus_hudsonius.jpg\r\n'
p939
aS'http://static.flickr.com/1065/1317115393_dfece20b71.jpg\r\n'
p940
aS'http://fwp.mt.gov/content/getItem.aspx?id=5627&amp;maxWidth=250&amp;maxHeight=175\r\n'
p941
aS'http://calphotos.berkeley.edu/imgs/128x192/8253_3202/0179/0030.jpeg\r\n'
p942
aS'http://www.bear-tracker.com/mousyface.jpg\r\n'
p943
aS'http://www.webindia123.com/wildlife/gallery/wild/deer/mousedeer.jpg\r\n'
p944
aS'http://www1.istockphoto.com/file_thumbview_approve/1251917/2/istockphoto_1251917_archie_deer_mouse_0423.jpg\r\n'
p945
aS'http://farm2.static.flickr.com/1422/1476414837_49d6935343.jpg\r\n'
p946
aS'http://farm1.static.flickr.com/194/447154312_2388e539dc.jpg\r\n'
p947
aS'http://farm1.static.flickr.com/139/367504473_48c7bae9d6.jpg\r\n'
p948
aS'http://www.mv.com/ipusers/lsg/Pix/Critters/Housemouse1f.jpg\r\n'
p949
aS'http://dinets.travel.ru/pefl3.jpg\r\n'
p950
aS'http://www.awionline.org/pubs/rabrodent/01.jpg\r\n'
p951
aS'http://www.animalpicturesarchive.com/animal/PREVIEW/White-footed_Mouse_1-by_Shirley_Curtis-s160.jpg\r\n'
p952
aS'http://sumarah.tripod.com/mouse-deer.gif\r\n'
p953
aS'http://safety.dri.edu/HantaVirus/images/hv161am.jpg\r\n'
p954
aS'http://www.dreckmann-ltda.cl/fumigaciones/imagenes/l-ltmouse.jpg\r\n'
p955
aS'http://static.flickr.com/37/92480940_4277c1dc84.jpg\r\n'
p956
aS'http://nationalzoo.si.edu/Animals/SmallMammals/images/mousedeer.jpg\r\n'
p957
aS'http://farm2.static.flickr.com/1311/1094093851_433205850c.jpg\r\n'
p958
aS'http://www.neoperceptions.com/fauna/mammals/images/deermouse12a.jpg\r\n'
p959
aS'http://static.flickr.com/14/14148547_b2ffe3dfde.jpg\r\n'
p960
aS'http://www.nethop.net/~sandness/Image93.jpg\r\n'
p961
aS'http://public.carnet.hr/XIIIgim/pictures/rodents/brush_mouse.jpg\r\n'
p962
aS'http://www.deltacounty.com/images/pages/N122/image001.jpg\r\n'
p963
aS'http://static.flickr.com/250/447154320_3f9e3312fb.jpg\r\n'
p964
aS'http://www.bbc.co.uk/nature/wildfacts/factfiles/images_small/california_mouse02_sm.jpg\r\n'
p965
aS'http://bayshore.files.wordpress.com/2007/10/deer_mouse.thumbnail.jpg\r\n'
p966
aS'http://www.artworkoriginals.com/thumbn/GXB10637.jpg\r\n'
p967
aS'http://dualravens.com/presentmatters/pictures/deermouse.jpg\r\n'
p968
aS'http://www.swpest.com/insectguide/rodents/deermouse/print/images/deer.jpg\r\n'
p969
aS'http://www.healthmedialab.com/art/exhibits/deermouse.jpg\r\n'
p970
aS'http://ptv.com.pk/images/kidscorner/mammal20.jpg\r\n'
p971
aS'http://www.ehs.berkeley.edu/images/deermouse.gif\r\n'
p972
aS'http://farm1.static.flickr.com/12/14769596_0b4e2edc9c.jpg\r\n'
p973
aS'http://farm2.static.flickr.com/1133/831384635_9f5f3374e2.jpg\r\n'
p974
aS'http://student.ucr.edu/~gruss001/deermouse3a.jpg\r\n'
p975
aS'http://upload.wikimedia.org/wikipedia/commons/thumb/6/62/Mus_Musculus-huismuis.jpg/250px-Mus_Musculus-huismuis.jpg\r\n'
p976
aS'http://www.durightipm.com/files/images/pestlibrary/deer_mouse.jpg\r\n'
p977
aS'http://www.blm.gov/ca/news/newsbytes/2006/images06/233/t_deermouse_um.jpg\r\n'
p978
aS'http://laspalmas.e-dynamic.com.ar/user/images/peromyscus.jpg\r\n'
p979
aS'http://www.yourpostcardsite.com/images/5401/deermouse.jpg\r\n'
p980
aS'http://farm1.static.flickr.com/56/430414065_945f603224.jpg\r\n'
p981
aS'http://www.icu90ucme.com/images/vertebrate/mammals/Deer%20Mouse.jpg\r\n'
p982
aS'http://www.oes.edu/ls/Hancock2005/Animals/images/12DeerMouse.jpg\r\n'
p983
aS'http://dinets.travel.ru/pefl4.jpg\r\n'
p984
aS'http://www.dimd.nait.ab.ca/~bsmith23/web/morningside/images/wild_deermouse.jpg\r\n'
p985
aS'http://www.mv.com/ipusers/lsg/Pix/Critters/Housemouse1e.jpg\r\n'
p986
aS'http://www.americanpest.net/images/resources/vertebrate-pests/vertebrate-main.jpg\r\n'
p987
aS'http://laspalmas.e-dynamic.com.ar/user/images/mouse.jpg\r\n'
p988
aS'http://g1d.com/esl/programs/yosemite/yosem_p4.jpg\r\n'
p989
aS'http://uk.geocities.com/lawrence.holloway@btinternet.com/140805WdMouse-web-02.jpg\r\n'
p990
aS'http://www.sitemouse.com/users/amiss/mouse1.jpg\r\n'
p991
aS'http://www.no-pest.com/HarvestMouse.JPG\r\n'
p992
aS'http://livingasiachannel.net/blog/wp-content/uploads/2007/05/balabac-mousedeer.JPG\r\n'
p993
aS'http://dinets.travel.ru/kancil2.jpg\r\n'
p994
aS'http://www.bbc.co.uk/nature/wildfacts/factfiles/images_small/california_mouse03_sm.jpg\r\n'
p995
aS'http://farm1.static.flickr.com/221/509791487_2ac7380bbd.jpg\r\n'
p996
aS'http://www.cpzbook.com/mousedeer.jpg\r\n'
p997
aS'http://www.2020pestcontrol.com/pest_directory/vertebrate_pests/pest_images/deer_mouse.jpg\r\n'
p998
aS'http://www.visualsunlimited.com/images/watermarked/436/436332.jpg\r\n'
p999
aS'http://www.neoperceptions.com/fauna/mammals/images/deermouse1a.jpg\r\n'
p1000
aS'http://annmariabell.com/newts/marbles.jpg\r\n'
p1001
aS'http://www.icepest.com/images/deermouse.gif\r\n'
p1002
aS'http://farm1.static.flickr.com/64/153376509_44ee3ec8e0.jpg\r\n'
p1003
aS'http://farm1.static.flickr.com/33/57447187_be005bc6a2.jpg\r\n'
p1004
aS'http://www.landonp.com/web/morningside/images/mouse.jpg\r\n'
p1005
aS'http://dinets.travel.ru/reme0.jpg\r\n'
p1006
aS'http://www.humboldtredwoods.org/images/jackrabbit.jpg\r\n'
p1007
aS'http://www.apestcontrol.com/pests/old/images/rodent_house.jpg\r\n'
p1008
aS'http://www.robertweselmann.com/thumbnails/deermouse_7081TN.jpg\r\n'
p1009
aS'http://www.agpix.com/catalog/AGPix_mueller1003/AGPix_mueller1003_0143.jpg\r\n'
p1010
aS'http://www.co.san-diego.ca.us/deh/images/vhanta_mice.jpg\r\n'
p1011
aS'http://www.saferbrand.com/images/vole.gif\r\n'
p1012
aS'http://static.flickr.com/31/57447192_e3fbfb6db9.jpg\r\n'
p1013
aS'http://www.lpchumanesociety.org/Images/deermouse_sm.jpg\r\n'
p1014
aS'http://www.wildlife-art.ca/images/deermouse_small.jpg\r\n'
p1015
aS'http://p1k3.com/2006/4/21/mouse2_large.jpg\r\n'
p1016
aS'http://www.buginfo.com/articles/images/art4_drmse.jpg\r\n'
p1017
aS'http://www.ophrysphotography.co.uk/imagethumbs/harvestmouse.jpg\r\n'
p1018
aS'http://farm2.static.flickr.com/1408/859503155_3a89584200.jpg\r\n'
p1019
aS'http://www.virtualmuseum.ca/Exhibitions/Emblemes/popimg/2239a_s.jpg\r\n'
p1020
aS'http://www.flyfishingkenya.com/Our-Products/thumbnails/Deer%20Hair%20Mouse%20Natural%20%5bII%5d.jpg\r\n'
p1021
aS'http://www.icu90ucme.com/images/vertebrate/mammals/Northern%20Pygmy%20Mouse.jpg\r\n'
p1022
aS'http://farm1.static.flickr.com/147/401279057_82ddc94712.jpg\r\n'
p1023
aS'http://funkman.org/animal/mammal/housemouse.jpg\r\n'
p1024
aS'http://www.centralpets.com/critter_images/mammals/rodents/ROD_0002492_20010804150150.jpg\r\n'
p1025
aS'http://www.fs.fed.us/r6/centraloregon/wildlife/species/mammals/images/ro-pinonmouse.jpg\r\n'
p1026
aS'http://www.mnh.si.edu/mna/thumbnails/images/815432211433029.jpg\r\n'
p1027
aS'http://www.spiritdancers.org/rilla/images/rdeer/brock1.jpg\r\n'
p1028
aS'http://www.oes.edu/LS/Hancock2005/Animals/thumbnails/12DeerMouse.jpg\r\n'
p1029
aS'http://www.visualsunlimited.com/images/watermarked/210/210433.jpg\r\n'
p1030
aS'http://www.pleasebekind.com/pic/mice.jpg\r\n'
p1031
aS'http://content.calgary.ca/NR/rdonlyres/e6mzqapb4wyrgmt6jnigezqvbzu4uh44gfnk2vm7i2jev3yr7ywmi5qwpjorlkvyolv3sfdb6msvjbexwv6gsyul66d/deermouse.jpg\r\n'
p1032
aS'http://www.northrup.org/Photos/deer/low/mouse-deer-tn.jpg\r\n'
p1033
aS'http://student.ucr.edu/~gruss001/deermouse1.jpg\r\n'
p1034
aS'http://www.mammalwatching.com/Nearctic/Images/webreportyukondeermouse.jpg\r\n'
p1035
aS'http://farm3.static.flickr.com/2280/2101332231_e674cbef9c.jpg\r\n'
p1036
aS'http://farm1.static.flickr.com/241/514973125_23dc5628ba.jpg\r\n'
p1037
aS'http://animaldiversity.ummz.umich.edu/site/resources/mzm2/71.mr2.jpg/badge.jpg\r\n'
p1038
aS'http://www.fs.fed.us/rm/ecopartner/images/mouse_on_a_stick.jpg\r\n'
p1039
aS'http://upload.wikimedia.org/wikipedia/commons/thumb/e/ee/Sigmodon_hispidus1.jpg/180px-Sigmodon_hispidus1.jpg\r\n'
p1040
aS'http://www.gajaflies.it/t_mouse.jpg\r\n'
p1041
aS'http://farm1.static.flickr.com/239/527142535_8eb7efb9f6.jpg\r\n'
p1042
aS'http://www.washington.edu/burkemuseum/collections/mammalogy/research/images/Peromanic.jpg\r\n'
p1043
aS'http://www.deratchan.com/adminlogin/zoopicturegallery/image38.jpg\r\n'
p1044
aS'http://www.pestzerozone.com/img/bugspests/mouse01.jpg\r\n'
p1045
aS'http://www.savecrowsnest.com/media/images/photos/wildlife/least_shrew.jpg\r\n'
p1046
aS'http://www.animalpicturesarchive.com/animal/PREVIEW/Peromyscus_sp02-White-footed_Deermouse-by_Dennis_Desmond-s160.jpg\r\n'
p1047
aS'http://www.bio.indiana.edu/~demaslab/hamster.JPG\r\n'
p1048
aS'http://web.uvic.ca/~mclinchy/mouse.jpg\r\n'
p1049
aS'http://a248.e.akamai.net/f/248/37853/60d/images.enature.com/mammals/mammals_m/MA0093_1m.jpg\r\n'
p1050
aS'http://www.animalpicturesarchive.com/ThumbOLD-6/thumb-1135087272.jpg\r\n'
p1051
aS'http://stkctr.biol.sc.edu/Llemail2.jpg\r\n'
p1052
aS'http://www.cdc.gov/rodents/images/252v2.jpg\r\n'
p1053
aS'http://www.leopold.iastate.edu/pubs/nwl/2005/2005-3-leoletter/images/mouse.jpg\r\n'
p1054
ag15
aS'http://heritage.nv.gov/images/2006/mimeal80.jpg\r\n'
p1055
aS'http://www.wildlifeextra.com/images/newmousecypriacus.JPG\r\n'
p1056
aS'http://www.lancswt.org.uk/images/Learning%20&%20Discovery/mammals/small%20mammals/housmouse1.jpg\r\n'
p1057
aS'http://www.solarnavigator.net/animal_kingdom/animal_images/mouse_woodmouse_apodemus_sylvaticus.jpg\r\n'
p1058
aS'http://thumb16.webshots.net/s/thumb1/7/13/2/29671302YkhKJuFMPw_th.jpg\r\n'
p1059
aS'http://www.reptileeducation.com/mkportal/modules/coppermine/albums/userpics/10003/normal_web_p1010490_1.jpg\r\n'
p1060
aS'http://www.furrycritters.co.uk/Gallery2/d/9577-2/pygmy+mouse+close+up.jpg\r\n'
p1061
aS'http://www.geocities.com/SiliconValley/Peaks/8478/n101.x.2.jpg\r\n'
p1062
aS'http://www.oregonzoo.org/Newsroom/2006%20releases/images/April21_EgyptianSpinyMouse.jpg\r\n'
p1063
aS'http://midcoast.tamu.edu/images/Northern%20pygmy%20mouse.jpg\r\n'
p1064
aS'http://www.fl-dof.com/forest_management/specimens/images/flmouse.jpg\r\n'
p1065
aS'http://www.bitsofnews.com/images/graphics/science/eastern_pygmy_possum.jpg\r\n'
p1066
aS'http://www.fourthcrossingwildlife.com/feathertailpossum.jpg\r\n'
p1067
aS'http://www.reptileeducation.com/mkportal/modules/coppermine/albums/userpics/10003/normal_web_p1010494_1.jpg\r\n'
p1068
aS'http://content.answers.com/main/content/wp/en-commons/thumb/5/5f/200px-House_mouse.jpg\r\n'
p1069
aS'http://www.ontariowildflower.com/images/animal_pygmy_shrew.jpg\r\n'
p1070
aS'http://www.simonsrodents.co.uk/caresheets/AFPYMO.jpg\r\n'
p1071
aS'http://img362.imageshack.us/img362/7028/woodmouse2ic.jpg\r\n'
p1072
aS'http://static.flickr.com/34/113530151_f118fd13ea.jpg\r\n'
p1073
aS'http://wotan.cse.sc.edu/perobase/images/polionotus_po.jpg\r\n'
p1074
aS'http://bp2.blogger.com/_qYa1pmpMDCc/RpWTGz6Y8rI/AAAAAAAAAKg/Q15ibqeLffQ/s400/pygmy_shrew_ireland.jpg\r\n'
p1075
aS'http://www.paxton-pits.org.uk/img/fieldvole.jpg\r\n'
p1076
aS'http://www.on.ec.gc.ca/wildlife/wildspace/media/mainpic/large/WFMO.jpg\r\n'
p1077
aS'http://www.kleineknaagdieren.nl/artikelen/overigeknaagdieren/200510-afrikaansedwergmuis/foto3.jpg\r\n'
p1078
aS'http://artfiles.art.com/images/-/Frank-Siteman/African-Pygmy-Hedgehog-Photographic-Print-I12706386.jpeg\r\n'
p1079
aS'http://www.lesjones.com/www/images/posts/mousegun.jpg\r\n'
p1080
aS'http://www.mnh2.si.edu/education/mna/images/images/825132014184052.jpg\r\n'
p1081
aS'http://www.chiwisplace.nl/Afbeeldingen/A%20Dwergmuis/P3192334.jpg\r\n'
p1082
aS'http://www.sbs.utexas.edu/halldw/Bio455L/Files/Lifelist/Mammals/Baiomys_taylori.jpg\r\n'
p1083
aS'http://www.mammalwatching.com/Australasian/Images/NSW%20Pygmy%20Possum.jpg\r\n'
p1084
aS'http://www.15acresinkent.com/Quickstart/ImageLib/wildlife-yellowneckedmouse_copy.jpg\r\n'
p1085
aS'http://www.borealforest.org/zoo/deer_mouse.gif\r\n'
p1086
aS'http://www.thanington-pc.gov.uk/larkey/woodmouse.jpg\r\n'
p1087
aS'http://www.ead.ae/TacSoft/images/news/060705-mouse-frog_big.jpg\r\n'
p1088
aS'http://www.mammalogy.org/mil_images/images/mid/1247.jpg\r\n'
p1089
aS'http://www.lancswt.org.uk/images/Learning%20&%20Discovery/mammals/small%20mammals/harvst2.jpg\r\n'
p1090
aS'http://farm1.static.flickr.com/29/56561924_078a35a95d.jpg\r\n'
p1091
aS'http://www.mnh.si.edu/mna/images/images/825132014184052.jpg\r\n'
p1092
aS'http://world.std.com/~eva/agouti.jpg\r\n'
p1093
aS'http://zaxy.files.wordpress.com/2006/10/cypriotmouse.jpg\r\n'
p1094
ag15
aS'http://www.batguys.com/images/mice/mouse.jpg\r\n'
p1095
aS'http://farm1.static.flickr.com/91/227019675_4a10a66643.jpg\r\n'
p1096
aS'http://www.plantpress.com/wildlife/images/0076-01.jpg\r\n'
p1097
aS'http://www.middleton-hall.co.uk/natural_history/mammals/wmouse02.jpg\r\n'
p1098
aS'http://static.flickr.com/227/470450831_f3bdd140e0.jpg\r\n'
p1099
aS'http://www.dkimages.com/discover/previews/961/35004103.JPG\r\n'
p1100
aS'http://www.nottswildlifetrust.org.uk/galleries/Mansfield/037%20Woodmouse.jpg\r\n'
p1101
aS'http://derbyshiremammalgroup.com/Photos/DerekWhiteley/WoodMouse.jpg\r\n'
p1102
aS'http://www.natural-imaging.com/Web%20pages/Photography/Pembs/Pem_Thumbs/th_Wood%20mouse.jpg\r\n'
p1103
aS'http://wildweb.london.gov.uk/wildweb/publicpages/images/sitepics/wabi04l.jpg\r\n'
p1104
aS'http://www.gutenberg.org/files/22129/22129-h/images/img048.jpg\r\n'
p1105
aS'http://static.flickr.com/221/478835576_1e8d934d3f.jpg\r\n'
p1106
aS'http://www.bbc.co.uk/gardening/htbg/module6/images/wood_mouse.jpg\r\n'
p1107
aS'http://colinsargent.co.uk/gallery/gallery5-2.jpg\r\n'
p1108
aS'http://farm2.static.flickr.com/1381/536918936_df2916f33f.jpg\r\n'
p1109
aS'http://farm3.static.flickr.com/2294/1948593059_80464a1a77.jpg\r\n'
p1110
aS'http://www.15acresinkent.com/Quickstart/ImageLib/wildlife-woodmouse_copy.jpg\r\n'
p1111
aS'http://farm1.static.flickr.com/231/450559429_251bb3c592.jpg\r\n'
p1112
aS'http://www.dawshallandpelham.co.uk/Daws%20Hall/Woodmouse.jpg\r\n'
p1113
aS'http://farm2.static.flickr.com/1264/566110249_445a821ea7.jpg\r\n'
p1114
aS'http://static.flickr.com/11/14901322_64c78e4930.jpg\r\n'
p1115
aS'http://www.shadowservices.com/nature/Maltese/biology/apodemus.jpg\r\n'
p1116
aS'http://little.owl.users.btopenworld.com/gallery_cwt_diary/diary_jul07_mouse1.jpg\r\n'
p1117
aS'http://farm1.static.flickr.com/191/483852566_9afdfa6241.jpg\r\n'
p1118
aS'http://news.nationalgeographic.com/kids/2003/11/images/mouse-big.jpg\r\n'
p1119
aS'http://static.flickr.com/1289/538611531_deec0a34ca.jpg\r\n'
p1120
aS'http://farm1.static.flickr.com/4/9669660_465b11630e.jpg\r\n'
p1121
aS'http://www.bioimages.org.uk/VFG/MWSt/MinDSDII/1971/71-10/71-10-03/71J03ApoSyl1.jpg\r\n'
p1122
aS'http://upload.wikimedia.org/wikipedia/commons/thumb/a/a2/Apodemus_sylvaticus.JPG/250px-Apodemus_sylvaticus.JPG\r\n'
p1123
aS'http://photos.passado.com/p01/45/D/1331721011f24e48b45285f85711ddf3_l.jpg\r\n'
p1124
aS'http://farm1.static.flickr.com/84/237914315_ead6d834cd.jpg\r\n'
p1125
aS'http://static.flickr.com/13/14901211_436a9dc40a.jpg\r\n'
p1126
aS'http://static.flickr.com/226/452969373_189bbc1e39.jpg\r\n'
p1127
aS'http://www.bioimages.org.uk/VFG/MWSt/MinDSDII/1971/71-10/71-10-03/71J03ApoSyl2.jpg\r\n'
p1128
aS'http://static.flickr.com/240/448204691_5dd63c7f4e.jpg\r\n'
p1129
aS'http://liveu-s-50.vo.llnwd.net/liveleak/14/media14/2007/Oct/21/LiveLeak-dot-com-110364-071019093241.jpg.thumb.jpg?e=1200960000&rs=65&ri=1024&h=d01f5fef2df8da509956712652b4a0d4\r\n'
p1130
aS'http://www.dkimages.com/discover/previews/935/45017605.JPG\r\n'
p1131
aS'http://www.berwickwildlifegroup.org.uk/MembersPhotos/Elizabeth/Woodmouse2.jpg\r\n'
p1132
aS'http://static.flickr.com/97/209246091_16097cd76e.jpg\r\n'
p1133
aS'http://ladywildlife.com/animal/woodmouse4.jpg\r\n'
p1134
aS'http://www.neath-porttalbot.gov.uk/images/noise/mouse.jpg\r\n'
p1135
aS'http://cache.eb.com/eb/thumb?id=8797\r\n'
p1136
aS'http://www.dkimages.com/discover/previews/978/50386673.JPG\r\n'
p1137
aS'http://www.dawshallandpelham.co.uk/Daws%20Hall/Bank%20Vole.jpg\r\n'
p1138
aS'http://www.andynewman.org/assets/images/Wood_Mouse350w.No7949.jpg\r\n'
p1139
aS'http://www.hampshiremammalgroup.co.uk/images/Wood_mouse.jpg\r\n'
p1140
aS'http://animals.m0.timduru.org/dirlist/mouse/KoreanRodent_pm35-KoreanWoodMouse.jpg\r\n'
p1141
aS'http://www.mybitoftheplanet.com/2005/apr_files/0104mouse1sm.jpg\r\n'
p1142
aS'http://www.thetweetshop.com/USERIMAGES/Wood%20Mouse,%20Six%20Bells,%20May%202007.jpg\r\n'
p1143
aS'http://www.hainaultforest.co.uk/Rat4.JPG\r\n'
p1144
aS'http://www.solarnavigator.net/animal_kingdom/animal_images/mouse_woodmouse_apodemus_sylvaticus.jpg\r\n'
p1145
aS'http://farm2.static.flickr.com/1298/1275128632_59a87c2671.jpg\r\n'
p1146
aS'http://www.ciid.it/eureco/foto/WoodMouse.jpg\r\n'
p1147
aS'http://www.rspb-images.com/tnail/1005666.jpg\r\n'
p1148
aS'http://www.strikeforcepestcontrol.com/images/wood_mouse.jpg\r\n'
p1149
aS'http://farm2.static.flickr.com/1414/1243033974_cc2a898a07.jpg\r\n'
p1150
aS'http://static.flickr.com/1439/943538614_19b9a3c01d.jpg\r\n'
p1151
aS'http://farm1.static.flickr.com/227/470450831_f3bdd140e0.jpg\r\n'
p1152
aS'http://www.bbc.co.uk/naturescalendar/autumn/farmland/images/devereux_woodmouse66.jpg\r\n'
p1153
aS'http://www.shutterstone.co.uk/mammals/woodmouse2thumb.jpg\r\n'
p1154
aS'http://www.ruralimages.freeserve.co.uk/wood-mouse.jpg\r\n'
p1155
aS'http://www.glasgow.gov.uk/NR/rdonlyres/ADA70CE7-28A6-4E87-ABEA-125FC2927784/0/woodmouse.jpg\r\n'
p1156
aS'http://farm3.static.flickr.com/2380/2078588572_4e9aabadfa.jpg\r\n'
p1157
aS'http://www.glasgow.gov.uk/NR/rdonlyres/627B9EEF-2794-45D6-99FD-D4E2FB7EC9C1/0/WoodMouse.jpg\r\n'
p1158
aS'http://farm1.static.flickr.com/241/519196915_c4e2fdf08f.jpg\r\n'
p1159
aS'http://static.flickr.com/185/468534379_3c2cb59e13.jpg\r\n'
p1160
aS'http://www.wildlifetrust.org.uk/cheshire/IMAGES/watch_wood_mouse.jpg\r\n'
p1161
aS'http://dorsetwildlife.co.uk/media/images/pix/fauna/holway_wood-woodmouse.jpg\r\n'
p1162
aS'http://www.masspest.com/images/mouse_stairs.jpg\r\n'
p1163
aS'http://farm1.static.flickr.com/57/203794350_438835ad83.jpg\r\n'
p1164
aS'http://www.swgfl.org.uk/wildlife/uploads/58_small.jpg\r\n'
p1165
aS'http://farm1.static.flickr.com/108/271525403_9760321cb0.jpg\r\n'
p1166
aS'http://farm3.static.flickr.com/2120/1675465826_d8f3c9813d.jpg\r\n'
p1167
aS'http://www.glenrath.com/coillte/smrwoods/woodenemy.jpg\r\n'
p1168
aS'http://cache.eb.com/eb/image?id=11877&rendTypeId=4\r\n'
p1169
aS'http://www.animals-online.be/rodents/pict/harvest_mouse.jpg\r\n'
p1170
aS'http://195.11.212.13/corporate/naturelink/species/images/Image183.jpg\r\n'
p1171
aS'http://www.bioimages.org.uk/VFG/MWSt/Nikon950/2000/00-01/00-01-16/00A16B_2.jpg\r\n'
p1172
aS'http://farm1.static.flickr.com/82/249192576_141e3ef74c.jpg\r\n'
p1173
aS'http://www.andynewman.org/assets/images/WOOD_MOUSE.No7949.sml.jpg\r\n'
p1174
aS'http://farm1.static.flickr.com/14/14901096_0ae28fff21.jpg\r\n'
p1175
aS'http://www.efn.org/%7Ecaruso/fairyland/portrait/mouse-01-wood-boag.jpg\r\n'
p1176
aS'http://www.btinternet.com/~lambjw/mice/pics/wood.gif\r\n'
p1177
aS'http://farm1.static.flickr.com/28/36590284_212d37722f.jpg\r\n'
p1178
aS'http://static.flickr.com/10/14901186_a4ce653c44.jpg\r\n'
p1179
aS'http://a.abcnews.com/images/Technology/ht_mouse_fat_070702_ms.jpg\r\n'
p1180
aS'http://static.flickr.com/1136/1349521875_ba6fbcd3e0.jpg\r\n'
p1181
aS'http://static.flickr.com/2170/2078591338_725cd01051.jpg\r\n'
p1182
aS'http://www.tron.vi.it/broion/immagini/animali/toposelv.jpg\r\n'
p1183
aS'http://www.luckylookimages.com/lowRes/LL_BC0/LL_BC01318.jpg\r\n'
p1184
aS'http://www.lakelandwildlife.co.uk/Species%20Data/Apodemus%20sylvaticus/pic1.jpg\r\n'
p1185
aS'http://static.flickr.com/14/14901286_a9ddca61b5.jpg\r\n'
p1186
aS'http://www.markhickenphotography.co.uk/Images/British%20wildlife/wood-mouse.jpg\r\n'
p1187
aS'http://www.geoffdore1.com/imagest/woodmse1t.jpg\r\n'
p1188
aS'http://farm1.static.flickr.com/194/465932466_1acea4adc5.jpg\r\n'
p1189
aS'http://farm3.static.flickr.com/2352/2078590500_56596e2925.jpg\r\n'
p1190
aS'http://static.flickr.com/11/14900978_9e27b1f149.jpg\r\n'
p1191
aS'http://www.wapoc.com/crap/woodmouse_small.jpg\r\n'
p1192
aS'http://static.flickr.com/198/459738057_44e308b188.jpg\r\n'
p1193
aS'http://www.jncc.gov.uk/images/woodmouse_250px.jpg\r\n'
p1194
aS'http://www.permuted.org.uk/forum/woodmouse_2310073754.jpg\r\n'
p1195
aS'http://farm2.static.flickr.com/1023/977244440_6edc5dd952.jpg\r\n'
p1196
aS'http://www.youthmatters.info/wildlife/assets/images/woodland04-wood-mouse.jpg\r\n'
p1197
aS'http://www.english-country-garden.com/a/i/animals/wood-mouse-4.jpg\r\n'
p1198
aS'http://www.edinburghphotographicsociety.co.uk/coppermine/albums/userpics/10089/thumb_1017403-PICT0015-wood-mouse.jpg\r\n'
p1199
aS'http://farm2.static.flickr.com/1343/1468434231_e8cf1409d5.jpg\r\n'
p1200
aS'http://www.david.element.ukgateway.net/mammals3_files/image004.jpg\r\n'
p1201
aS'http://magazine.uchicago.edu/Images/eb_oct07-03.jpg\r\n'
p1202
aS'http://farm3.static.flickr.com/2387/2165209071_e34f429e04.jpg\r\n'
p1203
aS'http://www.natuurbeleven.nl/images/bosmuis.jpg\r\n'
p1204
aS'http://www.penkridge.org.uk/monckton/images/Wildlife/woodmouse1.jpg\r\n'
p1205
aS'http://www.istockphoto.com/file_thumbview_approve/434686/1/istockphoto_434686_wood_mouse.jpg\r\n'
p1206
aS'http://www.vikingstudios.co.uk/Vikimages/FineArt/MousChain.jpg\r\n'
p1207
aS'http://farm2.static.flickr.com/1214/1076760956_a2bd340d49.jpg\r\n'
p1208
aS'http://static.flickr.com/1332/633765517_a38c9c96d4.jpg\r\n'
p1209
aS'http://farm1.static.flickr.com/206/466066927_b303926853.jpg\r\n'
p1210
aS'http://www.hlasek.com/foto/nahledy/apodemus_sylvaticus_4038.jpg\r\n'
p1211
aS'http://stockscotland.com/images/dk0300790204.jpg\r\n'
p1212
aS'http://www.junglewalk.com/animal-pictures/651/T/Wood-rat-12053.jpg\r\n'
p1213
aS'http://www.osel.cz/soubory/299/1.jpg\r\n'
p1214
aS'http://www.iol.ie/~carigeen/wood%20mouse.jpg\r\n'
p1215
aS'http://www.paulhobson.co.uk/wood_mouse_on_fungi.jpg\r\n'
p1216
aS'http://www.vic.org.uk/pro/rangerview/img/dec03/woodmouse.jpg\r\n'
p1217
aS'http://207.57.22.155/jpeg2/woodmse1.jpg\r\n'
p1218
aS'http://www.dkimages.com/discover/previews/880/25017625.JPG\r\n'
p1219
aS'http://www1.istockphoto.com/file_thumbview_approve/456915/2/istockphoto_456915_curious_mouse.jpg\r\n'
p1220
aS'http://static.flickr.com/214/471800646_fcc5365066.jpg\r\n'
p1221
aS'http://www.earwego.com/andy/images/Mammals/thumbs/Woodmouse%202001800024.jpg\r\n'
p1222
aS'http://farm3.static.flickr.com/2137/2078589120_5f86f87187.jpg\r\n'
p1223
aS'http://www.doyourownpestcontrol.com/house_mouse_uc.jpg\r\n'
p1224
aS'http://farm1.static.flickr.com/78/207923655_665f8f9a9d.jpg\r\n'
p1225
aS'http://farm1.static.flickr.com/12/14901411_09d154eb59.jpg\r\n'
p1226
aS'http://ladywildlife.com/animal/woodmouse3.jpg\r\n'
p1227
aS'http://www.natuurbeleven.nl/images/bosmuis5a.jpg\r\n'
p1228
aS'http://farm1.static.flickr.com/213/525981232_447b9fb412.jpg\r\n'
p1229
aS'http://www.miraclechickenurns.com/website/mouse.jpg\r\n'
p1230
aS'http://farm1.static.flickr.com/225/465275521_8bff8afc32.jpg\r\n'
p1231
aS'http://static.flickr.com/1082/535141612_481b176f1a.jpg\r\n'
p1232
aS'http://scienceblogs.com/zooillogix/mice.jpg\r\n'
p1233
aS'http://www.thehedge.org/fieldmouse.jpg\r\n'
p1234
aS'http://farm2.static.flickr.com/1332/633765517_a38c9c96d4.jpg\r\n'
p1235
aS'http://www.feah.net/pictures/experimental/animals/mouse1.jpg\r\n'
p1236
aS'http://farm3.static.flickr.com/2023/2078589868_85c96bd2b1.jpg\r\n'
p1237
aS'http://farm1.static.flickr.com/9/14901450_aa75d87c76.jpg\r\n'
p1238
aS'http://www.naturephoto-cz.com/photos/andera/thumb-wood-mouse,-3797.jpg\r\n'
p1239
aS'http://ladywildlife.com/animal/woodmouse.jpg\r\n'
p1240
aS'http://farm1.static.flickr.com/14/14900713_90cde031c0.jpg\r\n'
p1241
aS'http://www.stammer.nl/gallery13/214_1481_woodmouse_thm.jpg\r\n'
p1242
aS'http://farm3.static.flickr.com/2157/2052941393_8be901b386.jpg\r\n'
p1243
aS'http://bp3.blogger.com/_n8kEBE6EmV4/RmkSv8qtwCI/AAAAAAAAAg0/iYztNgTH-hM/s320/Wood+mouse++(Apodemus+sylvaticus)+Loughor.jpg\r\n'
p1244
aS'http://farm3.static.flickr.com/2170/2078591338_725cd01051.jpg\r\n'
p1245
aS'http://www.dkimages.com/discover/previews/1245/30019676.JPG\r\n'
p1246
aS'http://www.the-piedpiper.co.uk/graphics1/woodmouse1.jpg\r\n'
p1247
aS'http://farm3.static.flickr.com/2285/2083647686_80fa9191b2.jpg\r\n'
p1248
aS'http://static.flickr.com/2091/1658957332_52448d73e4.jpg\r\n'
p1249
aS'http://www.bbc.co.uk/devon/content/images/2005/06/30/neale_mouse_470x338.jpg\r\n'
p1250
aS'http://farm1.static.flickr.com/8/12498679_306de244f0.jpg\r\n'
p1251
aS'http://www.wildaboutbritain.co.uk/gallery/files/9/3/0/woodmouse1.jpg\r\n'
p1252
aS'http://img2.photographersdirect.com/img/22690/pd1529996_s.jpg\r\n'
p1253
aS'http://farm1.static.flickr.com/13/14900838_8cee01a218.jpg\r\n'
p1254
aS'http://farm2.static.flickr.com/1403/1455416334_f7c289eeec.jpg\r\n'
p1255
aS'http://farm3.static.flickr.com/2076/1832004504_b7b16b21cb.jpg\r\n'
p1256
aS'http://www.rspb-images.com/tnail/1001988.jpg\r\n'
p1257
aS'http://www.frcc.forestry.gov.uk/images/35767big.jpg/$FILE/35767big.jpg\r\n'
p1258
aS'http://www.ennjay.org/images/mouse_4a_small.jpg\r\n'
p1259
aS'http://farm1.static.flickr.com/86/237914319_5cdb8e7547.jpg\r\n'
p1260
aS'http://www.omne-vivum.com/p/f9906taq.jpg\r\n'
p1261
aS'http://static.flickr.com/42/95741948_8de6fd36ff.jpg\r\n'
p1262
aS'http://www.worldofstock.com/thumbs/NAN1437.jpg\r\n'
p1263
aS'http://www.dkimages.com/discover/previews/975/50020492.JPG\r\n'
p1264
aS'http://farm3.static.flickr.com/2034/1714554470_f0dc84cfc4.jpg\r\n'
p1265
aS'http://www.31grand.com/artists/stennett/holdmedown/holdmedownandunderzmsm.jpg\r\n'
p1266
aS'http://farm1.static.flickr.com/85/223864606_bf43581c97.jpg\r\n'
p1267
aS'http://farm1.static.flickr.com/189/440052574_f1489f128b.jpg\r\n'
p1268
aS'http://farm2.static.flickr.com/1082/1370822318_d2169dd549.jpg\r\n'
p1269
aS'http://www.hlasek.com/foto/apodemus_sylvaticus_e6715.jpg\r\n'
p1270
aS'http://www.arkive.org/media/884593B1-DF58-4CED-8AF3-A62C86026729/Presentation.Medium/facts-Wood-mouse-at-entrance-hole.jpg\r\n'
p1271
aS'http://www.dkimages.com/discover/previews/1053/55064231.JPG\r\n'
p1272
aS'http://bp0.blogger.com/_jF-gLBLDaUI/RZQQ62xr-hI/AAAAAAAAAPA/_c8M3r8uRrU/s400/1st+097.jpg\r\n'
p1273
aS'http://static.flickr.com/12/14900684_ed2e28e525.jpg\r\n'
p1274
aS'http://www.forestryimages.org/images/384x256/2169010.jpg\r\n'
p1275
aS'http://static.flickr.com/12/14900911_62aa7f9499.jpg\r\n'
p1276
aS'http://farm2.static.flickr.com/1225/1436542936_e3d40a5ae2.jpg\r\n'
p1277
aS'http://www.bbc.co.uk/southerncounties/content/images/2006/09/26/davegroomyounwoodmouse2_310x330.jpg\r\n'
p1278
aS'http://farm2.static.flickr.com/1206/1469292112_5fde712b9d.jpg\r\n'
p1279
aS'http://farm3.static.flickr.com/2231/2080836374_31302434df.jpg\r\n'
p1280
aS'http://www.woodmousecandles.com/Wood_Mouse_Candles/shopping_cart_files/woodmouse%20web%20small.png\r\n'
p1281
aS'http://bp1.blogger.com/_EQJvg1fEqqw/RsCYxuWNK3I/AAAAAAAAA9U/JDXV7cg4t8c/s400/WoodMouse_Broom_13Aug07a.jpg\r\n'
p1282
aS'http://www.bbc.co.uk/nature/wildfacts/factfiles/images_small/wmouse01_sm.jpg\r\n'
p1283
aS'http://assets.panda.org/img/woodmouse_39889.jpg\r\n'
p1284
aS'http://www.dkimages.com/discover/previews/795/20131654.JPG\r\n'
p1285
aS'http://farm2.static.flickr.com/1287/1245450017_43b4329749.jpg\r\n'
p1286
aS'http://farm2.static.flickr.com/1279/543362185_a6547b8511.jpg\r\n'
p1287
aS'http://www.inra.fr/hyppz/IMAGES/7030780.jpg\r\n'
p1288
aS'http://delivery.gettyimages.com/xc/73804254.jpg?v=1&c=NewsMaker&k=2&d=D8719D030E2C566FE3CA8B28898A9AD5E30A760B0D811297\r\n'
p1289
aS'http://www.sleepy-lizard.net/spgm/gal/Animals/Mammals/wood-mouse.jpg\r\n'
p1290
aS'http://www.getsirius.com/images/mouse/mouse_roar.jpg\r\n'
p1291
aS'http://farm2.static.flickr.com/1327/1399312322_9b9020391d.jpg\r\n'
p1292
aS'http://static.flickr.com/203/508589109_2b8f706874.jpg\r\n'
p1293
aS'http://annajonkers.punt.nl/upload/_41932896_woodmouse2.jpg\r\n'
p1294
aS'http://www.cairngormwildlife.co.uk/images/WoodmouseAug05.JPG\r\n'
p1295
aS'http://www.glaucus.org.uk/mouse044.jpg\r\n'
p1296
aS'http://farm1.static.flickr.com/35/70284698_2a32476a8f.jpg\r\n'
p1297
aS'http://static.flickr.com/188/470451181_b86bab1352.jpg\r\n'
p1298
aS'http://static.flickr.com/11/14900644_36fa9d5944.jpg\r\n'
p1299
aS'http://farm1.static.flickr.com/180/478835568_2ca620c295.jpg\r\n'
p1300
aS'http://www.studenec.ivb.cz/Images/Design/Illustration_Photos/mouse3.jpg\r\n'
p1301
aS'http://farm1.static.flickr.com/30/44034171_4f4e2c291f.jpg\r\n'
p1302
aS'http://www.fugleognatur.dk/images/galleri/small_mus.JPG\r\n'
p1303
aS'http://img1.photographersdirect.com/img/12656/pd470785_s.jpg\r\n'
p1304
aS'http://farm2.static.flickr.com/1029/1469290810_1440863eae.jpg\r\n'
p1305
aS'http://farm1.static.flickr.com/203/465278829_2913da73b0.jpg\r\n'
p1306
aS'http://farm1.static.flickr.com/34/92601953_b85d6d7ffb.jpg\r\n'
p1307
aS'http://www.31grand.com/artists/stennett/mouseswimminglowerright.jpg\r\n'
p1308
aS'http://bp2.blogger.com/_MM8L2PPmxC0/RsX2rgs1p_I/AAAAAAAAAdQ/Mn1ZYxkV8Cg/s400/late+mouse+one.jpg\r\n'
p1309
aS'http://www.djsphotography.co.uk/images/Mammals/Woodmouse-2.jpg\r\n'
p1310
aS'http://www.worldofstock.com/thumbs/NAN1438.jpg\r\n'
p1311
aS'http://www.bbc.co.uk/lincolnshire/content/images/2006/03/10/mar_06_gallery33_470x352.jpg\r\n'
p1312
aS'http://i.pbase.com/u16/britishbeef/small/39077644.deadwoodmousecopy.jpg\r\n'
p1313
aS'http://www.arkive.org/media/CF150109-E641-4638-B9F8-63B3F084382B/Presentation.Large/large-Wood-mouse-in-autumn.jpg\r\n'
p1314
aS'http://farm2.static.flickr.com/1255/1468682256_16dfd39df6.jpg\r\n'
p1315
aS'http://static.flickr.com/1236/1473559454_5b5ef02f61.jpg\r\n'
p1316
aS'http://farm3.static.flickr.com/2404/2072826919_33e76d0785.jpg\r\n'
p1317
aS'http://photos.passado.com/p01/45/D/1331721011f24e48b45285f85711ddf3_s.jpg\r\n'
p1318
aS'http://www.phocus-on.co.uk/idgallery/albums/userpics/10009/thumb_Wood%20Mouse%20%28%20Glenariff%20forest%20park%29%20Smaller%20Phocus.jpg\r\n'
p1319
aS'http://www.paxton-pits.org.uk/img/fieldvole.jpg\r\n'
p1320
aS'http://www.xenostech.co.uk/ukwildlife/pages/guide/group/pages/vertebrates/v%20pages/mammals/rodents/wood%20mouse.jpg\r\n'
p1321
aS'http://www.natuurbeleven.nl/images/bosmuis2a.jpg\r\n'
p1322
aS'http://static.flickr.com/14/14901125_b7e3110358.jpg\r\n'
p1323
aS'http://www.mediastorehouse.com/pictures_496562/Wood-Mouse.jpg\r\n'
p1324
aS'http://www.dkimages.com/discover/previews/978/50386666.JPG\r\n'
p1325
aS'http://www.wildcru.org/research/pics/woodmouse.jpg\r\n'
p1326
aS'http://farm1.static.flickr.com/11/14901244_e7b327eed6.jpg\r\n'
p1327
aS'http://www.wildforms.co.uk/assets/images/woodmouse.jpg\r\n'
p1328
aS'http://static.flickr.com/2385/1747649454_d8cefb35ea.jpg\r\n'
p1329
aS'http://farm1.static.flickr.com/56/149470637_b784710372.jpg\r\n'
p1330
aS'http://farm2.static.flickr.com/1280/1386718955_4ed417dc17.jpg\r\n'
p1331
aS'http://farm1.static.flickr.com/172/376290470_98bb9c9a1f.jpg\r\n'
p1332
aS'http://static.flickr.com/1359/1016701350_ff90e0f8e0.jpg\r\n'
p1333
aS'http://www.bowcolabs.com/dynamicdata/data/images/mouse.jpg\r\n'
p1334
aS'http://www.bbc.co.uk/cumbria/content/images/2006/05/12/woodmouse_470x274.jpg\r\n'
p1335
aS'http://farm1.static.flickr.com/141/328481029_b5734792c5.jpg\r\n'
p1336
aS'http://www.wildaboutbritain.co.uk/gallery/files/9/3/0/woodmouse2.jpg\r\n'
p1337
aS'http://farm3.static.flickr.com/2123/2195556469_7af90f612b.jpg\r\n'
p1338
aS'http://www.feah.net/pictures/experimental/animals/mouse2.jpg\r\n'
p1339
aS'http://www.countrysideinfo.co.uk/images/woodmse.jpg\r\n'
p1340
aS'http://www.stoneygrove.com/images/mice/woodmice.gif\r\n'
p1341
aS'http://farm1.static.flickr.com/94/217124252_9aca3b4003.jpg\r\n'
p1342
aS'http://farm2.static.flickr.com/1082/535141612_481b176f1a.jpg\r\n'
p1343
aS'http://www.devonmammalgroup.org/images/dmg.thumb.WoodMouse.jpg\r\n'
p1344
aS'http://farm1.static.flickr.com/9/14901583_5e7413dff2.jpg\r\n'
p1345
aS'http://static.flickr.com/203/468534403_86c917f8ec.jpg\r\n'
p1346
aS'http://www.allpestservices.ca/images/mouse.jpg\r\n'
p1347
aS'http://www.southhams.gov.uk/woodmouse.jpg\r\n'
p1348
aS'http://farm1.static.flickr.com/48/144965038_76bb35bab0.jpg\r\n'
p1349
aS'http://farm1.static.flickr.com/97/247682112_280b3e37ec.jpg\r\n'
p1350
aS'http://www.samclarkphotography.com/images/woodmouse1_thumb.jpg\r\n'
p1351
aS'http://www.novatec-id.com/blot/image_rodent.jpg\r\n'
p1352
aS'http://farm2.static.flickr.com/1136/1349521875_ba6fbcd3e0.jpg\r\n'
p1353
aS'http://www.bobperryonline.co.uk/mediac/400_0/media/DIR_7680/WoodMouse2.jpg\r\n'
p1354
aS'http://www.natureportfolio.com/mammals/thumbnails/foA0442.jpg\r\n'
p1355
aS'http://bp1.blogger.com/_BG-IakSSVK8/Rsdn3z0ZsII/AAAAAAAAABc/HBpPlFVO2IM/S226/August07+240A.JPG\r\n'
p1356
aS'http://www.natland.info/marmouse%20b.JPG\r\n'
p1357
aS'http://farm2.static.flickr.com/1326/1414185540_d9cb92745c.jpg\r\n'
p1358
aS'http://www.bbc.co.uk/cumbria/content/images/2007/04/19/wood_mouse_470x309.jpg\r\n'
p1359
aS'http://static.flickr.com/12/14900873_318b23850f.jpg\r\n'
p1360
aS'http://farm1.static.flickr.com/45/142996364_6f3f3e2132.jpg\r\n'
p1361
aS'http://www.david.element.ukgateway.net/mammals3_files/image002.jpg\r\n'
p1362
aS'http://www.clickonthewildside.com/communities/8/004/005/378/958/images/4511251525.gif\r\n'
p1363
aS'http://www.animalpicturesarchive.com/animal/PREVIEW/KoreanRodent_pm35-KoreanWoodMouse-s160.jpg\r\n'
p1364
aS'http://www.selfcateringcottagesdevon.co.uk/graphics/woodmouse.jpg\r\n'
p1365
aS'http://farm2.static.flickr.com/1373/1203776162_25fb4df1dd.jpg\r\n'
p1366
aS'http://static.flickr.com/1167/1411500841_7b234210fc.jpg\r\n'
p1367
aS'http://www.britishwildlifecentre.co.uk/images/woodmouse.jpg\r\n'
p1368
aS'http://www.americazoo.com/goto/index/mammals/animals/188.jpg\r\n'
p1369
aS'http://www.amhlung.org.uk/Woodmouse.jpg\r\n'
p1370
aS'http://www.bbc.co.uk/naturescalendar/autumn/farmland/images/devereux_woodmouse203.jpg\r\n'
p1371
aS'http://www.chris-shields.com/Images/Woodmouse.jpg\r\n'
p1372
aS'http://peerlessprice.co.uk/martinimages/photos/animals/wood%20mouse%20in%20litter%20010406small.jpg\r\n'
p1373
aS'http://farm2.static.flickr.com/1189/658062245_2f5c1c5976.jpg\r\n'
p1374
aS'http://www.bioimages.org.uk/VFG/MWSt/Nikon950/2000/00-01/00-01-16/00A16B_1.jpg\r\n'
p1375
aS'http://www.tiscali.co.uk/reference/encyclopaedia/wildlife/images/s2-3.e.jpg\r\n'
p1376
aS'http://farm3.static.flickr.com/2236/2217709180_8d5c9c9d4d.jpg\r\n'
p1377
aS'http://static.flickr.com/1391/561836583_c5a99aa147.jpg\r\n'
p1378
aS'http://www.terste.co.uk/images/Nature/Mammals/WoodMouse03.jpg\r\n'
p1379
aS'http://static.flickr.com/194/470452747_4f1714209f.jpg\r\n'
p1380
aS'http://www.wildcru.org/links/mammalmonitoring/pics/woodmouse2.jpg\r\n'
p1381
aS'http://www.higginsandmacfarlane.com/static/images/diary/thumbnails/00023.jpg\r\n'
p1382
aS'http://www.dkimages.com/discover/previews/795/20131593.JPG\r\n'
p1383
aS'http://www.howtogetridofstuff.com/images/howtogetridofmice/dead-wood-mouse.jpg\r\n'
p1384
aS'http://www.welshwildlife.co.uk/sales/card/large/01.jpg\r\n'
p1385
aS'http://www1.istockphoto.com/file_thumbview_approve/2988375/2/istockphoto_2988375_little_mouse.jpg\r\n'
p1386
aS'http://static.flickr.com/94/227018187_674888e86d.jpg\r\n'
p1387
aS'http://zooeco.com/Images/Apodemus%20sylvaticus%20Wood_mouse_preening.jpg\r\n'
p1388
aS'http://farm3.static.flickr.com/2146/1950113742_24d8a8aeac.jpg\r\n'
p1389
aS'http://www.ukphotographics.co.uk/magazine/wildlife/images/wl_200510_04.jpg\r\n'
p1390
aS'http://www.rampantscotland.com/colour/graphics/field_mouse_culzean8709p.jpg\r\n'
p1391
aS'http://www.dkimages.com/discover/previews/891/45044564.JPG\r\n'
p1392
aS'http://farm1.static.flickr.com/197/501267798_7785798e8a.jpg\r\n'
p1393
aS'http://static.flickr.com/52/131920212_9d796b2d71.jpg\r\n'
p1394
aS'http://farm1.static.flickr.com/62/160925138_e68dffb7c7.jpg\r\n'
p1395
aS'http://static.flickr.com/89/218364591_6d9be4ac3a.jpg\r\n'
p1396
aS'http://farm1.static.flickr.com/163/362352327_f804f3b297.jpg\r\n'
p1397
aS'http://www.bio.bris.ac.uk/research/mammal/woodmouse1.jpg\r\n'
p1398
aS'http://www.biopix.com/PhotosSmall/JCS%20Apodemus%20sylvaticus%2029547.jpg\r\n'
p1399
aS'http://montereybay.com/creagrus/Mouse_Striped-Jy05KGNP-w.jpg\r\n'
p1400
aS'http://www.ntsseabirds.org.uk/Images/Canna%20mouse(500pix).JPG\r\n'
p1401
aS'http://farm3.static.flickr.com/2281/1847226696_613401c51e.jpg\r\n'
p1402
aS'http://lomea.org/buffer/photogallery/bozaynici/polska%20mi6ka2.jpg\r\n'
p1403
aS'http://www.hebridean-island-images.com/Nature/images/Wood%20Mouse%20(NATA%200009).jpg\r\n'
p1404
aS'http://www.ruislipwoods.co.uk/andytrott/images/pic9.jpg\r\n'
p1405
aS'http://static.flickr.com/10/14901607_33fe493e8e.jpg\r\n'
p1406
aS'http://farm2.static.flickr.com/1117/1240456030_55be38a759.jpg\r\n'
p1407
aS'http://farm1.static.flickr.com/237/518037752_cebc9f8f68.jpg\r\n'
p1408
aS'http://www.the-piedpiper.co.uk/graphics1/woodmousenut.jpg\r\n'
p1409
aS'http://www.wildlife-gardening.org.uk/Features%5CWildlife%5C_living-with-mammals-070306%5Cwoodmouse.JPG\r\n'
p1410
aS'http://www.killfireants.com/images/pest/House_mouse-small.jpg\r\n'
p1411
aS'http://www.feah.net/pictures/experimental/animals/mouse2_tn.gif\r\n'
p1412
aS'http://stockscotland.com/images/dk0300790203.jpg\r\n'
p1413
aS'http://farm1.static.flickr.com/103/296032702_efcf42541f.jpg\r\n'
p1414
aS'http://www.ranaphoto.net/data/images/assets/460/5282.jpg\r\n'
p1415
aS'http://www.eimagesite.net/EIS/thumbs/0006/0034_000622_t.jpg\r\n'
p1416
aS'http://www.wildaboutkent.com/gallery/albums/Ian/IAN2634_01.thumb.jpg\r\n'
p1417
aS'http://www.hlasek.com/foto/apodemus_sylvaticus_e6641.jpg\r\n'
p1418
aS'http://farm2.static.flickr.com/1245/878362425_70bd5f29ea.jpg\r\n'
p1419
aS'http://www.uchospitals.edu/assets/uch_014526.jpg\r\n'
p1420
aS'http://www.natural-history-pictures.co.uk/mouse.jpg\r\n'
p1421
aS'http://stockscotland.com/images/dk0300790202.jpg\r\n'
p1422
aS'http://static.flickr.com/82/249192576_141e3ef74c.jpg\r\n'
p1423
aS'http://www.eimagesite.net/EIS/thumbs/0007/0034_000796_t.jpg\r\n'
p1424
aS'http://www.31grand.com/artists/stennett/mouseonrope1.jpg\r\n'
p1425
aS'http://farm3.static.flickr.com/2107/2204305922_0bbc43f9ae.jpg\r\n'
p1426
aS'http://static.flickr.com/171/452968211_597f5df491.jpg\r\n'
p1427
aS'http://farm1.static.flickr.com/13/13817607_bded0096a6.jpg\r\n'
p1428
aS'http://www.bbc.co.uk/wales/nature/sites/galleries/images/340x255/mammals/mouse_hywel.davies.jpg\r\n'
p1429
aS'http://www.essexmammalsurveys.com/wm.jpg\r\n'
p1430
aS'http://farm2.static.flickr.com/1390/926862567_cc7004cd21.jpg\r\n'
p1431
aS'http://www.skiptonweb.co.uk/gallery/images/standard/4143.jpg\r\n'
p1432
aS'http://static.flickr.com/2352/2078590500_56596e2925.jpg\r\n'
p1433
aS'http://farm1.static.flickr.com/10/14900585_9c5425531a.jpg\r\n'
p1434
aS'http://www.graviton.demon.co.uk/Mouse4.jpg\r\n'
p1435
aS'http://gregladen.com/wordpress/wp-content/graphics/chimera_rodent.jpg\r\n'
p1436
aS'http://www.valeriegreeley.com/wood%20mouse%2072.JPG\r\n'
p1437
aS'http://static.flickr.com/191/470433234_0c069c68fb.jpg\r\n'
p1438
aS'http://static.flickr.com/12/14900760_ccf34012ed.jpg\r\n'
p1439
aS'http://farm1.static.flickr.com/151/389564298_8e64d972aa.jpg\r\n'
p1440
aS'http://static.flickr.com/13/14901521_7cbb57157d.jpg\r\n'
p1441
aS'http://www.hainaultforest.co.uk/Rat3.JPG\r\n'
p1442
aS'http://www.freshwater-gallery.co.uk/images/upload/items/harvest20mouse.jpg\r\n'
p1443
aS'http://static.flickr.com/231/476559733_d304711a7c.jpg\r\n'
p1444
aS'http://images.jupiterimages.com/common/detail/37/83/22578337.jpg\r\n'
p1445
aS'http://static.flickr.com/98/271525411_b896f7dca6.jpg\r\n'
p1446
aS'http://www.gloucestershirewildlifetrust.co.uk/images/features/woodmouse.jpg\r\n'
p1447
aS'http://news.nationalgeographic.com/kids/2003/11/images/mouse-small.jpg\r\n'
p1448
aS'http://farm1.static.flickr.com/30/41772682_4cffdeb6ee.jpg\r\n'
p1449
aS'http://www.animals-online.be/rodents/pict/blackstriped_field_mouse.jpg\r\n'
p1450
aS'http://w3.abdn.ac.uk/mammal/images/woodmouse.jpg\r\n'
p1451
aS'http://www.seeing.org.uk/imgs/gallery/1425_144633711344aeec7e302cb.jpg\r\n'
p1452
aS'http://farm3.static.flickr.com/2349/2080827914_fd038570f0.jpg\r\n'
p1453
aS'http://www.wildlifewindow.com/images/ist1_2938900_mouse_on_snow.jpg\r\n'
p1454
aS'http://www.sflorg.com/sciencenews/images/imscn041806_02_01.jpg\r\n'
p1455
aS'http://farm1.static.flickr.com/69/168301632_af842d6566.jpg\r\n'
p1456
aS'http://farm2.static.flickr.com/1093/1337156046_d4ba4d06a7.jpg\r\n'
p1457
aS'http://www.takaraasianart.com/c_netsuke_museum/kowollik_net_mouse_lg.jpg\r\n'
p1458
aS'http://farm1.static.flickr.com/231/476559733_d304711a7c.jpg\r\n'
p1459
aS'http://www.english-country-garden.com/a/i/animals/wood-mouse-6.jpg\r\n'
p1460
aS'http://www.watkinsclan.me.uk/Gallery/creatures/animals/thumbs/coconut%20mouse.jpg\r\n'
p1461
aS'http://www.joanneglover.com/images/gloverj19.jpg\r\n'
p1462
aS'http://www.hows.org.uk/inter/birds/2006blog/mouse.jpg\r\n'
p1463
aS'http://static.flickr.com/11/14901060_c4cfdcf76a.jpg\r\n'
p1464
aS'http://wadict.soas.ac.uk/wadict/images/apodemus_sylvaticus(wood_mouse).jpg\r\n'
p1465
aS'http://www.1000figurines.com/countryartists/images/ca04148.jpg\r\n'
p1466
aS'http://farm1.static.flickr.com/39/85594125_1a55b3bd84.jpg\r\n'
p1467
aS'http://farm2.static.flickr.com/1299/964450585_39e2884a38.jpg\r\n'
p1468
aS'http://www.abc.net.au/science/news/img/woodmouse_moore.jpg\r\n'
p1469
aS'http://www.the-piedpiper.co.uk/graphics1/woodmousebabies.jpg\r\n'
p1470
aS'http://www.communigate.co.uk/dorset/kinson/phpGZVvQc\r\n'
p1471
aS'http://i1.treknature.com/photos/6314/wood_mouse.jpg\r\n'
p1472
aS'http://www.skiptonweb.co.uk/gallery/images/thumbs/5138.jpg\r\n'
p1473
aS'http://www.altonwildlife.co.uk/images/Projects_mouse.jpg\r\n'
p1474
aS'http://www.mendipsociety.org.uk/Photos/Flora___Fauna/SLEEPING_DORMOUSE_M_J_WOODS_640wide.JPG\r\n'
p1475
aS'http://farm2.static.flickr.com/1020/664727034_416891b50c.jpg\r\n'
p1476
aS'http://farm1.static.flickr.com/96/247681683_37805bdef3.jpg\r\n'
p1477
aS'http://farm1.static.flickr.com/89/218364591_6d9be4ac3a.jpg\r\n'
p1478
aS'http://www.photographersonsafari.com/images/scotland/wood-mouse-l.jpg\r\n'
p1479
aS'http://us.st11.yimg.com/us.st.yimg.com/I/onlinediscountmart_1983_263563297\r\n'
p1480
aS'http://farm1.static.flickr.com/14/14816904_3000ae4d98.jpg\r\n'
p1481
aS'http://farm1.static.flickr.com/154/357022765_65e59d9bee.jpg\r\n'
p1482
aS'http://www.visit-melksham.com/nature-images/32.woodmouse_001.jpg\r\n'
p1483
aS'http://farm2.static.flickr.com/1236/1473559454_5b5ef02f61.jpg\r\n'
p1484
aS'http://www.31grand.com/artists/stennett/mouseinmicrowave1sm.jpg\r\n'
p1485
aS'http://farm1.static.flickr.com/169/379059332_a2f39175c7.jpg\r\n'
p1486
aS'http://farm2.static.flickr.com/1139/1428858952_98349322a9.jpg\r\n'
p1487
aS'http://www.15acresinkent.com/Quickstart/ImageLib/wildlife-yellowneckedmouse_copy.jpg\r\n'
p1488
aS'http://static.flickr.com/1025/629791683_fc1de94200.jpg\r\n'
p1489
aS'http://img2.photographersdirect.com/img/22690/pd1478549_s.jpg\r\n'
p1490
aS'http://farm2.static.flickr.com/1176/1468435739_6de9212b5f.jpg\r\n'
p1491
aS'http://www.biopix.com/PhotosSmall/JCS%20Apodemus%20sylvaticus%2029551.jpg\r\n'
p1492
aS'http://www.bioimages.org.uk/VFG/MWSt/BW9630SP/1999/99-05/99-05-31/99E31A_4.jpg\r\n'
p1493
aS'http://www.itengine.co.uk/nature/wildfacts/factfiles/images_small/wmouse03_sm.jpg\r\n'
p1494
aS'http://www.yptenc.org.uk/docs/factsheets/animal_facts/animal_facts_images/woodmouse.jpg\r\n'
p1495
aS'http://farm1.static.flickr.com/194/470452747_4f1714209f.jpg\r\n'
p1496
aS'http://farm1.static.flickr.com/2/3661740_0772b12f98.jpg\r\n'
p1497
aS'http://www.uksafari.com/thumb/th_woodmouse.jpg\r\n'
p1498
aS'http://awards.warehouseexpress.com/pictures/comp.jpg\r\n'
p1499
aS'http://www.eimagesite.net/EIS/thumbs/0007/0034_000795_t.jpg\r\n'
p1500
aS'http://farm2.static.flickr.com/1136/527356356_764c6aed62.jpg\r\n'
p1501
aS'http://www.thanington-pc.gov.uk/larkey/woodmouse.jpg\r\n'
p1502
aS'http://farm1.static.flickr.com/42/95741948_8de6fd36ff.jpg\r\n'
p1503
aS'http://farm2.static.flickr.com/1095/613049258_8582c977d7.jpg\r\n'
p1504
aS'http://www.london.gov.uk/wildweb/publicpages/images/sitepics/woodmouseandypurcellcecs.jpg\r\n'
p1505
aS'http://www.wildaboutbritain.co.uk/gallery/files/3/5/9/2/LittleMouse.jpg\r\n'
p1506
aS'http://www.the-piedpiper.co.uk/graphics1/yellowneckedmouse.jpg\r\n'
p1507
aS'http://www.brightonline.org.uk/wmouse02.jpg\r\n'
p1508
aS'http://images.inmagine.com/168nwm/pixtal/pt239/CD239055.jpg\r\n'
p1509
aS'http://www.new-media-arts.com/woodgrove/pictures/mouse.bmp\r\n'
p1510
aS'http://www.validation-online.com/mediac/400_0/media/Wood$20Mouse.jpg\r\n'
p1511
aS'http://farm3.static.flickr.com/2186/1694321519_20c86854e1.jpg\r\n'
p1512
aS'http://photos.jibble.org/albums/LangfordLakes/Wood_Mouse_In_Wiltshire_IMG_0956.thumb.jpg\r\n'
p1513
aS'http://stockscotland.com/images/d36p0090jpg.jpg\r\n'
p1514
aS'http://farm1.static.flickr.com/80/227018411_d829e093ab.jpg\r\n'
p1515
aS'http://static.flickr.com/13/14901036_02d27cadbb.jpg\r\n'
p1516
aS'http://fhtms.sbschools.net/users/bwight/2002/mollyf/deer%20mouse%20on%20wood.jpg\r\n'
p1517
aS'http://www.bioimages.org.uk/VFG/MWSt/BW9630SP/1999/99-05/99-05-31/99E31A_6.jpg\r\n'
p1518
aS'http://farm2.static.flickr.com/1022/822415603_24e77e610a.jpg\r\n'
p1519
aS'http://farm1.static.flickr.com/85/237923164_e3f02a5cac.jpg\r\n'
p1520
aS'http://farm1.static.flickr.com/23/37996474_696ad13099.jpg\r\n'
p1521
aS'http://farm1.static.flickr.com/177/470432728_1e567ce425.jpg\r\n'
p1522
aS'http://farm3.static.flickr.com/2046/2080050217_a6807296ae.jpg\r\n'
p1523
aS'http://www.srichinmoycentre.org/Members/jogyata/light/light_images/wood-mouse.jpg\r\n'
p1524
aS'http://www.31grand.com/artists/stennett/holdmedown/mouseonfirealarmzmsm.jpg\r\n'
p1525
aS'http://images.jupiterimages.com/common/detail/71/91/22579171.jpg\r\n'
p1526
aS'http://farm2.static.flickr.com/1312/791547268_3ac05c9610.jpg\r\n'
p1527
aS'http://www1.istockphoto.com/file_thumbview_approve/3354915/2/istockphoto_3354915_rat_on_wood_table.jpg\r\n'
p1528
aS'http://www.terste.co.uk/images/Nature/Mammals/WoodMouse04.jpg\r\n'
p1529
aS'http://www.arthurgrosset.com/mammals/photos/thumbaposyl3347.jpg\r\n'
p1530
aS'http://www.1000figurines.com/countryartists/images/ca03861t.jpg\r\n'
p1531
aS'http://images.jupiterimages.com/common/detail/95/49/22254995.jpg\r\n'
p1532
aS'http://farm1.static.flickr.com/188/470451181_b86bab1352.jpg\r\n'
p1533
aS'http://farm3.static.flickr.com/2001/2204143366_e0be6c8af5.jpg\r\n'
p1534
aS'http://www.ukphotographics.co.uk/magazine/wildlife/images/wl_200510_05.jpg\r\n'
p1535
aS'http://wildlifebreaks.co.uk/images/woodmouse5_5.jpg\r\n'
p1536
aS'http://farm2.static.flickr.com/1232/1411052208_725a5cdb79.jpg\r\n'
p1537
aS'http://news.bbc.co.uk/media/images/38152000/jpg/_38152772_woodmouse300.jpg\r\n'
p1538
aS'http://www.britishnature.co.uk/Mammals/WoodMouse-thumb.jpg\r\n'
p1539
aS'http://www.london.gov.uk/wildweb/publicpages/images/sitepics/hgbii11s.jpg\r\n'
p1540
aS'http://farm1.static.flickr.com/10/14901348_ab03995444.jpg\r\n'
p1541
aS'http://static.flickr.com/48/144965038_76bb35bab0.jpg\r\n'
p1542
aS'http://farm1.static.flickr.com/53/251969513_65a7ca1806.jpg\r\n'
p1543
aS'http://uk.geocities.com/lawrence.holloway@btinternet.com/140805WdMouse-web-02.jpg\r\n'
p1544
aS'http://farm1.static.flickr.com/29/55902876_27d76d9fc3.jpg\r\n'
p1545
aS'http://nonops.org/images/RR%20woodmouse.jpg\r\n'
p1546
aS'http://static.flickr.com/2340/1556403855_91d03897de.jpg\r\n'
p1547
aS'http://farm2.static.flickr.com/1289/538611531_deec0a34ca.jpg\r\n'
p1548
aS'http://www.bbc.co.uk/nature/animals/wildbritain/wildinyourgarden/gardens/images/app_mouse.jpg\r\n'
p1549
aS'http://farm1.static.flickr.com/214/523842005_d70416b755.jpg\r\n'
p1550
aS'http://www.peterpreece.com/USERIMAGES/thumb_wood-mouse.jpg\r\n'
p1551
aS'http://www.dkimages.com/discover/previews/795/20131616.JPG\r\n'
p1552
aS'http://www.graviton.demon.co.uk/Mouse2.jpg\r\n'
p1553
aS'http://www.wildaboutkent.com/gallery/albums/showcase/MT184_8463_Wood_Mouse.thumb.jpg\r\n'
p1554
aS'http://www.wildaboutbritain.co.uk/gallery/files/1/3/0/6/8/garden-visitor_thumb.jpg\r\n'
p1555
aS'http://www1.istockphoto.com/file_thumbview_approve/417552/2/istockphoto_417552_dead_wood_mouse.jpg\r\n'
p1556
aS'http://users.ox.ac.uk/~speight/Orielton/wood%20mouse.jpg\r\n'
p1557
aS'http://www.essexwt.org.uk/thumbs/Thumbnails/wood%20mouse%20(LF).jpg\r\n'
p1558
aS'http://farm1.static.flickr.com/42/125275948_2e409546c5.jpg\r\n'
p1559
aS'http://wildlifebreaks.co.uk/images/woodmouse5_7.jpg\r\n'
p1560
aS'http://www.record-lrc.co.uk/images/Documents/Images/apodemus%20sylvaticus~wood%20mouse~1.jpg\r\n'
p1561
aS'http://www.mybitoftheplanet.com/2004/mar_files/mouse1903big.jpg\r\n'
p1562
aS'http://wildlifebreaks.co.uk/images/woodmouse5_6.jpg\r\n'
p1563
aS'http://www.lochnesscottage.com/images/wild-life/wood-mouse.jpg\r\n'
p1564
aS'http://www.norfolkwildlifetrust.org.uk/files/image/galleryimages/images/90c23f4b7306eb1bd3200c012cbde391.jpg\r\n'
p1565
aS'http://homepage.ntlworld.com/f.longrigg/jennymousem.jpg\r\n'
p1566
aS'http://www.biopps.com/images/articles/interspecies-rodent-stem-cells_1.jpg\r\n'
p1567
aS'http://farm1.static.flickr.com/65/186180246_5b7a3a7489.jpg\r\n'
p1568
aS'http://farm3.static.flickr.com/2287/2080826480_b74e4d5c7d.jpg\r\n'
p1569
aS'http://static.flickr.com/1117/1240456030_55be38a759.jpg\r\n'
p1570
aS'http://www.watkinsclan.me.uk/Gallery/creatures/animals/thumbs/woodmouse.jpg\r\n'
p1571
aS'http://farm1.static.flickr.com/10/14901607_33fe493e8e.jpg\r\n'
p1572
aS'http://farm1.static.flickr.com/111/366373403_f8acbf1a4d.jpg\r\n'
p1573
aS'http://www.echoes.info/wild/images/Chuck%20E/mammals/thumbs/CE105_tb-Wood-Mouse.jpg\r\n'
p1574
aS'http://chronicle.uchicago.edu/080110/chimera.jpg\r\n'
p1575
aS'http://farm3.static.flickr.com/2308/2168340957_5018d84c00.jpg\r\n'
p1576
aS'http://www.frcc.forestry.gov.uk/images/1005527big.jpg/$FILE/1005527big.jpg\r\n'
p1577
aS'http://www1.istockphoto.com/file_thumbview_approve/793061/2/istockphoto_793061_mouse_in_a_trap.jpg\r\n'
p1578
aS'http://www.eimagesite.net/EIS/thumbs/0006/0034_000623_t.jpg\r\n'
p1579
aS'http://www.31grand.com/artists/stennett/girlinredangorawithmouse.jpg\r\n'
p1580
ag15
a.