(lp0
S'http://farm2.static.flickr.com/1407/543742699_35e338480a.jpg\r\n'
p1
aS'http://farm5.static.flickr.com/4078/4745624155_663314420b.jpg\r\n'
p2
aS'http://farm3.static.flickr.com/2662/3682775610_255030fe7a.jpg\r\n'
p3
aS'http://farm1.static.flickr.com/41/94884816_6bab2cf7e7.jpg\r\n'
p4
aS'http://farm4.static.flickr.com/3306/3236949567_2d67a5dc70.jpg\r\n'
p5
aS'http://farm4.static.flickr.com/3141/2900904891_439e3caabc.jpg\r\n'
p6
aS'http://farm3.static.flickr.com/2011/2300233503_1cfdfb3c8a.jpg\r\n'
p7
aS'http://farm3.static.flickr.com/2538/3710539514_df1370aa56.jpg\r\n'
p8
aS'http://farm4.static.flickr.com/3531/3723233752_fd6d29f507.jpg\r\n'
p9
aS'http://farm4.static.flickr.com/3404/3490251940_100a0bff2b.jpg\r\n'
p10
aS'http://farm5.static.flickr.com/4071/4474475716_8ab11790b9.jpg\r\n'
p11
aS'http://farm3.static.flickr.com/2272/2117266214_26bbe4c5bd.jpg\r\n'
p12
aS'http://farm1.static.flickr.com/57/175535791_74c7cde215.jpg\r\n'
p13
aS'http://farm4.static.flickr.com/3394/3418510224_69da6a22b7.jpg\r\n'
p14
aS'http://farm4.static.flickr.com/3138/3008029469_f43401e765.jpg\r\n'
p15
aS'http://farm5.static.flickr.com/4067/4328106524_76a5625918.jpg\r\n'
p16
aS'http://farm1.static.flickr.com/170/368329905_e75eee235f.jpg\r\n'
p17
aS'http://farm3.static.flickr.com/2094/2082522087_a31b190a58.jpg\r\n'
p18
aS'http://farm4.static.flickr.com/3558/3513488371_8d2827a359.jpg\r\n'
p19
aS'http://farm4.static.flickr.com/3593/3297917162_a15120b0a5.jpg\r\n'
p20
aS'http://farm4.static.flickr.com/3076/2916887319_674b032921.jpg\r\n'
p21
aS'http://farm1.static.flickr.com/142/339368998_e6d20785d0.jpg\r\n'
p22
aS'http://farm1.static.flickr.com/47/117551880_e5a58ad4fe.jpg\r\n'
p23
aS'http://farm4.static.flickr.com/3016/2382910715_8077469b60.jpg\r\n'
p24
aS'http://farm4.static.flickr.com/3280/3026294421_de7e8fa039.jpg\r\n'
p25
aS'http://farm4.static.flickr.com/3245/2992676449_9fdf88084d.jpg\r\n'
p26
aS'http://farm4.static.flickr.com/3477/3971992830_dc0b5a15c9.jpg\r\n'
p27
aS'http://farm2.static.flickr.com/1437/1290883726_974ac26656.jpg\r\n'
p28
aS'http://farm4.static.flickr.com/3110/3456028999_d899d2c107.jpg\r\n'
p29
aS'http://farm5.static.flickr.com/4040/4383134962_fd9bcffbed.jpg\r\n'
p30
aS'http://farm1.static.flickr.com/242/3263252475_a617018b51.jpg\r\n'
p31
aS'http://farm1.static.flickr.com/135/339347992_bbb5ae4034.jpg\r\n'
p32
aS'http://farm5.static.flickr.com/4035/4616415126_8508cc0ddd.jpg\r\n'
p33
aS'http://farm1.static.flickr.com/74/224522942_0bf8e80a31.jpg\r\n'
p34
aS'http://farm3.static.flickr.com/2290/1553680103_dedd0f2cf8.jpg\r\n'
p35
aS'http://farm3.static.flickr.com/2653/3761007727_65c49c4be9.jpg\r\n'
p36
aS'http://farm3.static.flickr.com/2231/1953652306_1102788d04.jpg\r\n'
p37
aS'http://farm3.static.flickr.com/2180/1514740974_b7a86b61a0.jpg\r\n'
p38
aS'http://farm4.static.flickr.com/3439/3236858891_f7b7f34d26.jpg\r\n'
p39
aS'http://farm4.static.flickr.com/3295/2295094505_9a7615efa2.jpg\r\n'
p40
aS'http://farm3.static.flickr.com/2579/3679508964_dc724d96e3.jpg\r\n'
p41
aS'http://farm5.static.flickr.com/4064/4706489731_994f0b67bc.jpg\r\n'
p42
aS'http://farm3.static.flickr.com/2525/3971551434_448f5f987d.jpg\r\n'
p43
aS'http://farm1.static.flickr.com/195/512540125_cd9bf05e4f.jpg\r\n'
p44
aS'http://static.flickr.com/1/549386_aed91c0496.jpg\r\n'
p45
aS'http://farm3.static.flickr.com/2269/1837718432_25d371c3bf.jpg\r\n'
p46
aS'http://farm5.static.flickr.com/4100/4903644435_fe767fc318.jpg\r\n'
p47
aS'http://farm3.static.flickr.com/2042/2356600936_9fbd73ca69.jpg\r\n'
p48
aS'http://farm4.static.flickr.com/3470/3232382544_593bd6b793.jpg\r\n'
p49
aS'http://farm2.static.flickr.com/1440/539775030_a4c782658a.jpg\r\n'
p50
aS'http://us.123rf.com/400wm/400/400/tonobalaguer/tonobalaguer0903/tonobalaguer090300432/4460184.jpg\r\n'
p51
aS'http://farm4.static.flickr.com/3467/3236883263_aa2647309c.jpg\r\n'
p52
aS'http://farm4.static.flickr.com/3463/3872551537_cb155f4a1f.jpg\r\n'
p53
aS'http://farm4.static.flickr.com/3537/3357387098_c5470d7f48.jpg\r\n'
p54
aS'http://farm1.static.flickr.com/33/64561215_ffa7fa678d.jpg\r\n'
p55
aS'http://farm3.static.flickr.com/2167/2232774786_33e9bc2dcf.jpg\r\n'
p56
aS'http://farm1.static.flickr.com/56/139181356_fde80cfece.jpg\r\n'
p57
aS'http://farm4.static.flickr.com/3516/4079051439_e001b38b57.jpg\r\n'
p58
aS'http://farm5.static.flickr.com/4135/4880268344_6b6e4f8a3a.jpg\r\n'
p59
aS'http://farm2.static.flickr.com/1433/1074832805_f1c4308d11.jpg\r\n'
p60
aS'http://farm3.static.flickr.com/2158/2420500978_5383648b7c.jpg\r\n'
p61
aS'http://farm3.static.flickr.com/2148/2300215353_54599a695a.jpg\r\n'
p62
aS'http://farm4.static.flickr.com/3459/3855002416_f20afc03cd.jpg\r\n'
p63
aS'http://farm3.static.flickr.com/2116/2478534435_021a8840ae.jpg\r\n'
p64
aS'http://farm3.static.flickr.com/2599/3757925466_191d06cc98.jpg\r\n'
p65
aS'http://farm1.static.flickr.com/144/396008732_13d17d6ee4.jpg\r\n'
p66
aS'http://farm1.static.flickr.com/184/416108647_9bc03408fa.jpg\r\n'
p67
aS'http://farm3.static.flickr.com/2130/2497550063_429b7c4213.jpg\r\n'
p68
aS'http://farm3.static.flickr.com/2214/2301004542_b7d6425fdb.jpg\r\n'
p69
aS'http://farm4.static.flickr.com/3198/2674829690_ba739324e3.jpg\r\n'
p70
aS'http://farm3.static.flickr.com/2496/3918252947_25d3c20fd4.jpg\r\n'
p71
aS'http://images.townnews.com/news-herald.com/content/articles/2009/09/09/news/nh1389424.jpg\r\n'
p72
aS'http://farm5.static.flickr.com/4072/4353954819_91165619e8.jpg\r\n'
p73
aS'http://farm4.static.flickr.com/3001/2991618798_560bdfedec.jpg\r\n'
p74
aS'http://farm3.static.flickr.com/2255/2137501742_2f2066255f.jpg\r\n'
p75
aS'http://farm1.static.flickr.com/47/183128140_5df8eb97d3.jpg\r\n'
p76
aS'http://farm1.static.flickr.com/50/117551337_35c78cc01a.jpg\r\n'
p77
aS'http://farm3.static.flickr.com/2462/3612779661_86589377bb.jpg\r\n'
p78
aS'http://farm2.static.flickr.com/1087/863274726_6982fe3d4c.jpg\r\n'
p79
aS'http://farm3.static.flickr.com/2378/2424018555_7b85a1f595.jpg\r\n'
p80
aS'http://farm4.static.flickr.com/3397/3606230598_665fef2626.jpg\r\n'
p81
aS'http://farm4.static.flickr.com/3328/4622148144_405dd3f29a.jpg\r\n'
p82
aS'http://farm4.static.flickr.com/3097/3236937181_dba1e22f2c.jpg\r\n'
p83
aS'http://farm1.static.flickr.com/152/351644756_41296e8c4f.jpg\r\n'
p84
aS'http://farm4.static.flickr.com/3422/3232327518_c5e055d2af.jpg\r\n'
p85
aS'http://farm4.static.flickr.com/3117/2458184111_55340403de.jpg\r\n'
p86
aS'http://farm3.static.flickr.com/2259/2449308381_0bf289fb1f.jpg\r\n'
p87
aS'http://farm3.static.flickr.com/2244/2430244329_b1ff8e50ac.jpg\r\n'
p88
aS'http://farm1.static.flickr.com/26/65858179_847c2f0052.jpg\r\n'
p89
aS'http://farm1.static.flickr.com/5/6169809_56b8194283.jpg\r\n'
p90
aS'http://farm5.static.flickr.com/4085/5022784887_833317386a.jpg\r\n'
p91
aS'http://farm5.static.flickr.com/4065/4579956887_af5492f100.jpg\r\n'
p92
aS'http://farm1.static.flickr.com/134/331447108_44d5de851a.jpg\r\n'
p93
aS'http://farm1.static.flickr.com/182/368328464_9d6d04d997.jpg\r\n'
p94
aS'http://farm2.static.flickr.com/1360/748323142_9b08da912c.jpg\r\n'
p95
aS'http://farm1.static.flickr.com/24/48531834_9ebde8cde7.jpg\r\n'
p96
aS'http://farm3.static.flickr.com/2240/3722905981_b2d8970279.jpg\r\n'
p97
aS'http://farm5.static.flickr.com/4066/4357112415_4eed132520.jpg\r\n'
p98
aS'http://farm5.static.flickr.com/4013/4540195007_ce0354127d.jpg\r\n'
p99
aS'http://farm2.static.flickr.com/1222/1221064781_8142476938.jpg\r\n'
p100
aS'http://farm1.static.flickr.com/124/398741403_1c750e7532.jpg\r\n'
p101
aS'http://farm3.static.flickr.com/2284/2253340706_dd51a6cb50.jpg\r\n'
p102
aS'http://farm1.static.flickr.com/145/408151847_5ca76f584f.jpg\r\n'
p103
aS'http://farm1.static.flickr.com/56/119255359_76a8823700.jpg\r\n'
p104
aS'http://farm3.static.flickr.com/2382/2432685202_8aa706e400.jpg\r\n'
p105
aS'http://farm3.static.flickr.com/2397/2433031483_95639fbfef.jpg\r\n'
p106
aS'http://farm4.static.flickr.com/3278/2345779825_0fa232bf63.jpg\r\n'
p107
aS'http://farm3.static.flickr.com/2255/2330217786_dfe7205fc5.jpg\r\n'
p108
aS'http://farm3.static.flickr.com/2345/2069120518_207c82ffa0.jpg\r\n'
p109
aS'http://farm4.static.flickr.com/3136/2491845257_b2aedc823d.jpg\r\n'
p110
aS'http://farm1.static.flickr.com/35/71124948_5a8fcb6b81.jpg\r\n'
p111
aS'http://farm1.static.flickr.com/111/275400784_15e9109b4d.jpg\r\n'
p112
aS'http://farm2.static.flickr.com/1171/1319891285_b6fda396af.jpg\r\n'
p113
aS'http://farm4.static.flickr.com/3368/3577709726_0d014be2f7.jpg\r\n'
p114
aS'http://farm3.static.flickr.com/2073/1651044736_fcdd2ee904.jpg\r\n'
p115
aS'http://farm5.static.flickr.com/4136/4888012498_8b4de25137.jpg\r\n'
p116
aS'http://farm4.static.flickr.com/3573/3551209378_ace1f3a6d5.jpg\r\n'
p117
aS'http://farm3.static.flickr.com/2322/2179121221_3140ba5238.jpg\r\n'
p118
aS'http://farm1.static.flickr.com/23/28447149_09a0883683.jpg\r\n'
p119
aS'http://farm3.static.flickr.com/2259/2155833546_abbb406577.jpg\r\n'
p120
aS'http://farm4.static.flickr.com/3300/3190753181_c3eb55c264.jpg\r\n'
p121
aS'http://farm4.static.flickr.com/3099/3114591685_0b6e2a227c.jpg\r\n'
p122
aS'http://farm4.static.flickr.com/3358/3558806089_bbe8a0da7b.jpg\r\n'
p123
aS'http://farm3.static.flickr.com/2017/1590255690_03d626d64f.jpg\r\n'
p124
aS'http://farm3.static.flickr.com/2026/2422860893_2d1daaa754.jpg\r\n'
p125
aS'http://farm4.static.flickr.com/3208/2971916638_04f88ffdda.jpg\r\n'
p126
aS'http://farm3.static.flickr.com/2550/4100855158_ae8b168072.jpg\r\n'
p127
aS'http://farm5.static.flickr.com/4074/4828345105_c9676fe811.jpg\r\n'
p128
aS'http://farm4.static.flickr.com/3578/3691745610_61feb3ab17.jpg\r\n'
p129
aS'http://farm4.static.flickr.com/3624/3647359726_775c997334.jpg\r\n'
p130
aS'http://farm1.static.flickr.com/64/191644077_c2197ebcc2.jpg\r\n'
p131
aS'http://farm5.static.flickr.com/4110/4847292559_396137b4ef.jpg\r\n'
p132
aS'http://farm4.static.flickr.com/3181/2827331189_702283784c.jpg\r\n'
p133
aS'http://farm4.static.flickr.com/3208/2928824440_1b6c697b15.jpg\r\n'
p134
aS'http://farm4.static.flickr.com/3424/3370772473_b26b8a3bc0.jpg\r\n'
p135
aS'http://farm2.static.flickr.com/1238/1050786156_c53ca41162.jpg\r\n'
p136
aS'http://farm2.static.flickr.com/1222/1147932272_58ab3635c7.jpg\r\n'
p137
aS'http://farm4.static.flickr.com/3492/3456246819_066c1e7352.jpg\r\n'
p138
aS'http://farm3.static.flickr.com/2184/2223513565_7b447ba329.jpg\r\n'
p139
aS'http://farm3.static.flickr.com/2262/2317742910_788aa2c34c.jpg\r\n'
p140
aS'http://farm3.static.flickr.com/2558/3661812727_e6defddd0c.jpg\r\n'
p141
aS'http://farm4.static.flickr.com/3201/3012801086_e2c57baeee.jpg\r\n'
p142
aS'http://farm5.static.flickr.com/4003/4579060589_10dac6b7d7.jpg\r\n'
p143
aS'http://farm1.static.flickr.com/32/39911208_25fd70a593.jpg\r\n'
p144
aS'http://farm4.static.flickr.com/3199/3155607089_5bcda526de.jpg\r\n'
p145
aS'http://farm2.static.flickr.com/1287/1320778604_9a744606cb.jpg\r\n'
p146
aS'http://farm3.static.flickr.com/2035/2498377258_970393239d.jpg\r\n'
p147
aS'http://farm3.static.flickr.com/2571/3951176000_04f63901f8.jpg\r\n'
p148
aS'http://farm1.static.flickr.com/35/71194794_f269163857.jpg\r\n'
p149
aS'http://farm3.static.flickr.com/2386/2097487597_c144d5e0ae.jpg\r\n'
p150
aS'http://farm3.static.flickr.com/2663/3891778751_02c4d2cac5.jpg\r\n'
p151
aS'http://farm4.static.flickr.com/3363/3548836368_f2f63cc6ba.jpg\r\n'
p152
aS'http://farm1.static.flickr.com/145/329944867_bfbb8ae600.jpg\r\n'
p153
aS'http://farm1.static.flickr.com/55/140524436_78b17dc1f7.jpg\r\n'
p154
aS'http://farm3.static.flickr.com/2058/2318677145_bb5c9d96e3.jpg\r\n'
p155
aS'http://farm1.static.flickr.com/105/312735012_aaeaa0fb40.jpg\r\n'
p156
aS'http://farm3.static.flickr.com/2552/4118718985_463c09d072.jpg\r\n'
p157
aS'http://farm3.static.flickr.com/2081/2071491744_179145b3a7.jpg\r\n'
p158
aS'http://farm3.static.flickr.com/2303/2215843867_db87a4f0d2.jpg\r\n'
p159
aS'http://farm4.static.flickr.com/3478/3909882092_ca9de6407f.jpg\r\n'
p160
aS'http://farm4.static.flickr.com/3018/2586844187_121bafcf9d.jpg\r\n'
p161
aS'http://farm5.static.flickr.com/4028/4657707448_f97ce8c516.jpg\r\n'
p162
aS'http://farm3.static.flickr.com/2013/2190510094_0b9ee131c0.jpg\r\n'
p163
aS'http://farm3.static.flickr.com/2668/4178347808_5bda547103.jpg\r\n'
p164
aS'http://farm4.static.flickr.com/3614/3590406781_64be5d8488.jpg\r\n'
p165
aS'http://farm1.static.flickr.com/91/235245357_990a24470a.jpg\r\n'
p166
aS'http://farm1.static.flickr.com/111/303620506_d685c7b724.jpg\r\n'
p167
aS'http://farm3.static.flickr.com/2191/2278722975_ddbc55a69d.jpg\r\n'
p168
aS'http://farm4.static.flickr.com/3030/2632948952_9122343923.jpg\r\n'
p169
aS'http://farm3.static.flickr.com/2246/2158638436_2b4545b75d.jpg\r\n'
p170
aS'http://farm3.static.flickr.com/2219/2097760958_b0f20d4357.jpg\r\n'
p171
aS'http://farm4.static.flickr.com/3541/3547354219_5188dea611.jpg\r\n'
p172
aS'http://farm3.static.flickr.com/2445/3872982262_27a02e3195.jpg\r\n'
p173
aS'http://farm4.static.flickr.com/3214/2808798967_cb5e963876.jpg\r\n'
p174
aS'http://farm4.static.flickr.com/3171/2830756674_654a4867d8.jpg\r\n'
p175
aS'http://farm2.static.flickr.com/1043/613872458_14c0e24c5c.jpg\r\n'
p176
aS'http://farm1.static.flickr.com/222/494568368_f42eee3ce7.jpg\r\n'
p177
aS'http://farm3.static.flickr.com/2191/2221803550_1a03c6cfcc.jpg\r\n'
p178
aS'http://farm4.static.flickr.com/3554/3447059254_b7c1ebe350.jpg\r\n'
p179
aS'http://farm2.static.flickr.com/1338/806309629_42b1391360.jpg\r\n'
p180
aS'http://farm1.static.flickr.com/33/47248194_0b424e2391.jpg\r\n'
p181
aS'http://farm3.static.flickr.com/2285/2201862081_924020fcb9.jpg\r\n'
p182
aS'http://farm3.static.flickr.com/2263/2507531681_82130de1d3.jpg\r\n'
p183
aS'http://farm4.static.flickr.com/3420/3213171795_47f41678c6.jpg\r\n'
p184
aS'http://farm4.static.flickr.com/3124/3205343175_e8b45aea94.jpg\r\n'
p185
aS'http://farm4.static.flickr.com/3380/3446252373_d875d1fcf5.jpg\r\n'
p186
aS'http://farm4.static.flickr.com/3112/3141407305_11860da5ff.jpg\r\n'
p187
aS'http://farm4.static.flickr.com/3198/2851773925_6f4dfb9acf.jpg\r\n'
p188
aS'http://farm5.static.flickr.com/4111/4993654374_3798ae0f60.jpg\r\n'
p189
aS'http://farm4.static.flickr.com/3119/2488725676_4b55c1e214.jpg\r\n'
p190
aS'http://farm3.static.flickr.com/2514/4161987643_cd97092ddd.jpg\r\n'
p191
aS'http://farm3.static.flickr.com/2369/2102916645_51721454a1.jpg\r\n'
p192
aS'http://farm1.static.flickr.com/198/512506538_e3919c6401.jpg\r\n'
p193
aS'http://farm4.static.flickr.com/3638/3383338189_21038a342e.jpg\r\n'
p194
aS'http://farm3.static.flickr.com/2294/2433025607_9776b49d48.jpg\r\n'
p195
aS'http://farm1.static.flickr.com/157/426436311_2315aef83c.jpg\r\n'
p196
aS'http://farm4.static.flickr.com/3631/3296031832_6dc56d3c9d.jpg\r\n'
p197
aS'http://farm3.static.flickr.com/2463/3761807402_7df74c5c0e.jpg\r\n'
p198
aS'http://farm4.static.flickr.com/3236/2917757706_ccd0bb19bb.jpg\r\n'
p199
aS'http://farm4.static.flickr.com/3207/3090972560_0cf4716825.jpg\r\n'
p200
aS'http://farm3.static.flickr.com/2768/4159103647_41c10f53a3.jpg\r\n'
p201
aS'http://farm4.static.flickr.com/3584/3371430649_e3aa31c37e.jpg\r\n'
p202
aS'http://farm1.static.flickr.com/117/261883687_008f121580.jpg\r\n'
p203
aS'http://farm3.static.flickr.com/2484/3950428835_38efa61aaa.jpg\r\n'
p204
aS'http://farm3.static.flickr.com/2583/4216087202_20ab6faa2e.jpg\r\n'
p205
aS'http://farm5.static.flickr.com/4153/4845283075_35607606b2.jpg\r\n'
p206
aS'http://farm5.static.flickr.com/4073/4950708125_85e44b61dc.jpg\r\n'
p207
aS'http://farm4.static.flickr.com/3633/3371424527_fc5d0c8602.jpg\r\n'
p208
aS'http://farm4.static.flickr.com/3440/3401380846_ace48f557d.jpg\r\n'
p209
aS'http://farm4.static.flickr.com/3478/3720292815_32bfe89931.jpg\r\n'
p210
aS'http://farm2.static.flickr.com/1370/1440177125_20cddbe094.jpg\r\n'
p211
aS'http://farm3.static.flickr.com/2476/3966123308_8daeaeff4f.jpg\r\n'
p212
aS'http://farm4.static.flickr.com/3118/2478531635_7ca658ef91.jpg\r\n'
p213
aS'http://farm5.static.flickr.com/4007/4578220567_1ccbe004a0.jpg\r\n'
p214
aS'http://farm3.static.flickr.com/2358/1650207667_88a0bc7b11.jpg\r\n'
p215
aS'http://farm5.static.flickr.com/4048/4688451643_46781a8900.jpg\r\n'
p216
aS'http://farm3.static.flickr.com/2389/2300963416_b6c8e5d5eb.jpg\r\n'
p217
aS'http://farm4.static.flickr.com/3492/3918181791_46de7beef0.jpg\r\n'
p218
aS'http://farm3.static.flickr.com/2321/2253340010_5021b99bff.jpg\r\n'
p219
aS'http://farm1.static.flickr.com/58/202024193_830e5fdc49.jpg\r\n'
p220
aS'http://farm4.static.flickr.com/3439/3180884910_8cf5306627.jpg\r\n'
p221
aS'http://farm3.static.flickr.com/2411/1650135581_b023d296fb.jpg\r\n'
p222
aS'http://farm4.static.flickr.com/3256/2774737088_099407b7f7.jpg\r\n'
p223
aS'http://farm1.static.flickr.com/18/23743923_54ac2a5a53.jpg\r\n'
p224
aS'http://farm4.static.flickr.com/3123/2494814024_585c58043c.jpg\r\n'
p225
aS'http://farm1.static.flickr.com/22/29429777_0c90a892d6.jpg\r\n'
p226
aS'http://farm3.static.flickr.com/2423/3629054682_e4a84f67dd.jpg\r\n'
p227
aS'http://farm5.static.flickr.com/4034/4569895160_025d39252e.jpg\r\n'
p228
aS'http://farm3.static.flickr.com/2218/2043928865_ab8c8e4197.jpg\r\n'
p229
aS'http://farm5.static.flickr.com/4095/4778539258_610572372d.jpg\r\n'
p230
aS'http://farm3.static.flickr.com/2240/2539536492_87af950106.jpg\r\n'
p231
aS'http://farm4.static.flickr.com/3448/3257715250_6af41dac9a.jpg\r\n'
p232
aS'http://farm5.static.flickr.com/4002/4247720500_bdc353e994.jpg\r\n'
p233
aS'http://farm3.static.flickr.com/2191/2233550610_afae285250.jpg\r\n'
p234
aS'http://farm3.static.flickr.com/2185/2136729071_6cc709b8ce.jpg\r\n'
p235
aS'http://farm3.static.flickr.com/2463/3619415104_11abd5b52c.jpg\r\n'
p236
aS'http://farm4.static.flickr.com/3285/3131979140_dc0e665b77.jpg\r\n'
p237
aS'http://farm1.static.flickr.com/95/268149208_d51dec08de.jpg\r\n'
p238
aS'http://farm4.static.flickr.com/3546/3418335855_4d69665a13.jpg\r\n'
p239
aS'http://farm3.static.flickr.com/2214/2223262353_60632dfa9f.jpg\r\n'
p240
aS'http://farm4.static.flickr.com/3179/2992668937_675a786f03.jpg\r\n'
p241
aS'http://farm1.static.flickr.com/209/464300097_0f9d9df31f.jpg\r\n'
p242
aS'http://farm3.static.flickr.com/2066/2246436705_17997ecdfe.jpg\r\n'
p243
aS'http://farm4.static.flickr.com/3436/3380214149_527721c502.jpg\r\n'
p244
aS'http://farm4.static.flickr.com/3055/3023571852_02ce25b27f.jpg\r\n'
p245
aS'http://farm4.static.flickr.com/3395/3197257501_126a96ab1e.jpg\r\n'
p246
aS'http://farm3.static.flickr.com/2778/4079801614_ae7d5d1f3b.jpg\r\n'
p247
aS'http://farm3.static.flickr.com/2037/2252550765_04b78061ea.jpg\r\n'
p248
aS'http://farm3.static.flickr.com/2637/4079799480_9eaf8714e5.jpg\r\n'
p249
aS'http://farm3.static.flickr.com/2766/4273649835_07062e888a.jpg\r\n'
p250
aS'http://farm5.static.flickr.com/4075/4930202622_1b93721532.jpg\r\n'
p251
aS'http://farm3.static.flickr.com/2479/3804689437_7fbd0ddd7a.jpg\r\n'
p252
aS'http://farm4.static.flickr.com/3023/2301857685_28bee6b9df.jpg\r\n'
p253
aS'http://farm1.static.flickr.com/22/33111057_a3d2b2b718.jpg\r\n'
p254
aS'http://farm4.static.flickr.com/3122/2864947254_355c889a72.jpg\r\n'
p255
aS'http://farm4.static.flickr.com/3365/3236838633_570daf6a80.jpg\r\n'
p256
aS'http://farm4.static.flickr.com/3243/2682648536_08f24964e4.jpg\r\n'
p257
aS'http://farm4.static.flickr.com/3583/3477316795_88d171dd58.jpg\r\n'
p258
aS'http://farm3.static.flickr.com/2565/4159860386_c28a9cd90d.jpg\r\n'
p259
aS'http://farm4.static.flickr.com/3049/2563641766_e14b39e3f4.jpg\r\n'
p260
aS'http://farm4.static.flickr.com/3213/3378072585_8c22c48db9.jpg\r\n'
p261
aS'http://farm4.static.flickr.com/3131/3141028760_078d5f2226.jpg\r\n'
p262
aS'http://farm1.static.flickr.com/51/164309611_c7d6cdee4f.jpg\r\n'
p263
aS'http://farm2.static.flickr.com/1089/534077951_ec34a3ccbf.jpg\r\n'
p264
aS'http://farm4.static.flickr.com/3277/2574686021_9e3d47080b.jpg\r\n'
p265
aS'http://farm1.static.flickr.com/61/196862347_26d88e94ab.jpg\r\n'
p266
aS'http://farm4.static.flickr.com/3389/3419719584_d7c64bd56b.jpg\r\n'
p267
aS'http://farm3.static.flickr.com/2213/2317383429_f8c3604af5.jpg\r\n'
p268
aS'http://farm3.static.flickr.com/2030/3571787007_1caa5921e1.jpg\r\n'
p269
aS'http://farm4.static.flickr.com/3429/3265607723_d4faa87228.jpg\r\n'
p270
aS'http://farm3.static.flickr.com/2049/2244395158_05e61228c4.jpg\r\n'
p271
aS'http://farm1.static.flickr.com/230/512537447_f51dcbcc65.jpg\r\n'
p272
aS'http://farm3.static.flickr.com/2244/2539425320_dfcbb80f70.jpg\r\n'
p273
aS'http://farm3.static.flickr.com/2425/3589447966_fa6d81f629.jpg\r\n'
p274
aS'http://farm5.static.flickr.com/4010/4618787629_7d7de4703d.jpg\r\n'
p275
aS'http://farm3.static.flickr.com/2655/3919033402_3f79f4dcb4.jpg\r\n'
p276
aS'http://farm3.static.flickr.com/2010/2303566039_6353e8cb95.jpg\r\n'
p277
aS'http://farm4.static.flickr.com/3547/3412540511_6a4c6d6cce.jpg\r\n'
p278
aS'http://farm4.static.flickr.com/3579/3517282371_04be19086d.jpg\r\n'
p279
aS'http://farm3.static.flickr.com/2653/4079046741_beeff4e2b0.jpg\r\n'
p280
aS'http://farm4.static.flickr.com/3040/2400208591_52461e6311.jpg\r\n'
p281
aS'http://farm3.static.flickr.com/2066/2380942941_53905017a1.jpg\r\n'
p282
aS'http://farm4.static.flickr.com/3370/4609040893_52a94da4c5.jpg\r\n'
p283
aS'http://farm4.static.flickr.com/3201/2724421969_cb3b379576.jpg\r\n'
p284
aS'http://farm3.static.flickr.com/2004/1504335825_184f72b417.jpg\r\n'
p285
aS'http://farm1.static.flickr.com/43/111845021_6452a277c8.jpg\r\n'
p286
aS'http://farm4.static.flickr.com/3456/3879668455_7854e8b879.jpg\r\n'
p287
aS'http://farm1.static.flickr.com/216/498616956_312442bf0d.jpg\r\n'
p288
aS'http://farm3.static.flickr.com/2239/1836796973_7c002aa3e3.jpg\r\n'
p289
aS'http://farm4.static.flickr.com/3384/3590402467_5e70a6c564.jpg\r\n'
p290
aS'http://farm2.static.flickr.com/1023/1434097004_0caea9352f.jpg\r\n'
p291
aS'http://farm3.static.flickr.com/2034/1504345771_c80b4838ab.jpg\r\n'
p292
aS'http://farm4.static.flickr.com/3035/2749842947_30575a37c0.jpg\r\n'
p293
aS'http://farm3.static.flickr.com/2593/3851969107_47f3fa66e8.jpg\r\n'
p294
aS'http://farm2.static.flickr.com/1009/1352282870_023e191127.jpg\r\n'
p295
aS'http://farm4.static.flickr.com/3346/3558802815_fbafccfb29.jpg\r\n'
p296
aS'http://farm4.static.flickr.com/3204/2612688705_28144a7dca.jpg\r\n'
p297
aS'http://farm3.static.flickr.com/2564/4209655310_05e26e55f5.jpg\r\n'
p298
aS'http://farm3.static.flickr.com/2388/1650166417_2f33f5adb4.jpg\r\n'
p299
aS'http://farm3.static.flickr.com/2789/4223302016_06a38d16b3.jpg\r\n'
p300
aS'http://farm3.static.flickr.com/2026/2136632723_4cc81a18ba.jpg\r\n'
p301
aS'http://farm3.static.flickr.com/2284/3527873250_332cded4db.jpg\r\n'
p302
aS'http://farm1.static.flickr.com/19/109800719_91dea723c1.jpg\r\n'
p303
aS'http://farm5.static.flickr.com/4127/4845454057_eb090f3692.jpg\r\n'
p304
aS'http://farm2.static.flickr.com/1433/1301575167_03288d37b2.jpg\r\n'
p305
aS'http://farm4.static.flickr.com/3375/3446865965_8cb023b3e6.jpg\r\n'
p306
aS'http://farm3.static.flickr.com/2713/4345928981_b3ceb3c39c.jpg\r\n'
p307
aS'http://farm3.static.flickr.com/2165/2136516321_99817ca9a8.jpg\r\n'
p308
aS'http://farm3.static.flickr.com/2032/1535186079_60cf806ad4.jpg\r\n'
p309
aS'http://farm4.static.flickr.com/3201/3090983628_a1b1451c33.jpg\r\n'
p310
aS'http://farm3.static.flickr.com/2547/4120402422_81df2a062d.jpg\r\n'
p311
aS'http://farm4.static.flickr.com/3193/3063165655_7dc1a968ee.jpg\r\n'
p312
aS'http://farm3.static.flickr.com/2093/2211104711_278ef70234.jpg\r\n'
p313
aS'http://farm4.static.flickr.com/3235/3045553990_be0784673a.jpg\r\n'
p314
aS'http://www.vanillajoy.com/wp-content/uploads/2008/06/baby-holding-keys.jpg\r\n'
p315
aS'http://farm4.static.flickr.com/3623/3353897906_4050a9546c.jpg\r\n'
p316
aS'http://farm4.static.flickr.com/3293/3040777155_ef072a3656.jpg\r\n'
p317
aS'http://farm2.static.flickr.com/1304/1362513677_189968d881.jpg\r\n'
p318
aS'http://www.elim-drenthe.nl/Geboren/2007/2007-7-1BoydKatedeRuiter.jpg\r\n'
p319
aS'http://farm3.static.flickr.com/2670/4223322848_3ce4cdf5e2.jpg\r\n'
p320
aS'http://farm4.static.flickr.com/3636/3547940762_700d6f7371.jpg\r\n'
p321
aS'http://farm1.static.flickr.com/173/367258867_bea32f59fe.jpg\r\n'
p322
aS'http://farm4.static.flickr.com/3047/2574288432_777731ccbc.jpg\r\n'
p323
aS'http://farm1.static.flickr.com/139/339568050_57c90a0d34.jpg\r\n'
p324
aS'http://farm4.static.flickr.com/3641/3572652843_b341321a5f.jpg\r\n'
p325
aS'http://farm3.static.flickr.com/2454/4079815108_6a3492428e.jpg\r\n'
p326
aS'http://farm4.static.flickr.com/3468/3708635681_df7dbc7bb1.jpg\r\n'
p327
aS'http://farm5.static.flickr.com/4109/4847940652_2fc9ab446f.jpg\r\n'
p328
aS'http://farm4.static.flickr.com/3217/2751932963_7f9d6f8362.jpg\r\n'
p329
aS'http://farm3.static.flickr.com/2152/2097757832_0b052f4b94.jpg\r\n'
p330
aS'http://farm5.static.flickr.com/4089/4847935974_571f44892f.jpg\r\n'
p331
aS'http://farm1.static.flickr.com/223/496295189_2e7f5381f6.jpg\r\n'
p332
aS'http://farm4.static.flickr.com/3013/3008770942_8870b786f9.jpg\r\n'
p333
aS'http://farm3.static.flickr.com/2234/2308170559_76f5ea128f.jpg\r\n'
p334
aS'http://farm4.static.flickr.com/3004/2497415439_32661ec245.jpg\r\n'
p335
aS'http://farm5.static.flickr.com/4059/4472537213_e1cd9ac5fe.jpg\r\n'
p336
aS'http://farm1.static.flickr.com/35/70661295_550c2c9bf1.jpg\r\n'
p337
aS'http://farm5.static.flickr.com/4057/4697565270_330e246b71.jpg\r\n'
p338
aS'http://farm4.static.flickr.com/3263/3114458296_ce246ac56c.jpg\r\n'
p339
aS'http://farm2.static.flickr.com/1044/677006247_5301524b20.jpg\r\n'
p340
aS'http://farm5.static.flickr.com/4006/4682733828_8d55e813d8.jpg\r\n'
p341
aS'http://farm4.static.flickr.com/3165/2892436552_58f7c47e7f.jpg\r\n'
p342
aS'http://farm3.static.flickr.com/2260/1578572269_47f1f2a97d.jpg\r\n'
p343
aS'http://farm4.static.flickr.com/3213/3039896151_10b630120f.jpg\r\n'
p344
aS'http://farm3.static.flickr.com/2656/3710182545_5730f919d0.jpg\r\n'
p345
aS'http://farm5.static.flickr.com/4031/4641982763_cfcbd9c83d.jpg\r\n'
p346
aS'http://farm1.static.flickr.com/5/4964015_5de988c7ed.jpg\r\n'
p347
aS'http://farm5.static.flickr.com/4020/4319139602_46833517b2.jpg\r\n'
p348
aS'http://farm3.static.flickr.com/2595/3821593604_5ffc981ca4.jpg\r\n'
p349
aS'http://farm3.static.flickr.com/2122/1695430502_06fd67e4c4.jpg\r\n'
p350
aS'http://farm1.static.flickr.com/146/435453283_bdf256f34a.jpg\r\n'
p351
aS'http://farm1.static.flickr.com/105/364697467_70e111180b.jpg\r\n'
p352
aS'http://farm1.static.flickr.com/19/93759215_53f082ee88.jpg\r\n'
p353
aS'http://farm3.static.flickr.com/2027/2522935695_8f8a08f742.jpg\r\n'
p354
aS'http://farm4.static.flickr.com/3384/3446254529_9bbcd158bd.jpg\r\n'
p355
aS'http://farm4.static.flickr.com/3136/2816969451_b3fc705ee1.jpg\r\n'
p356
aS'http://farm5.static.flickr.com/4142/4880268188_ac3deb75cc.jpg\r\n'
p357
aS'http://farm5.static.flickr.com/4039/4278090807_27a626b7d7.jpg\r\n'
p358
aS'http://farm1.static.flickr.com/31/56252421_8e39fbaa85.jpg\r\n'
p359
aS'http://farm4.static.flickr.com/3531/3699438340_9f89b52ec8.jpg\r\n'
p360
aS'http://farm5.static.flickr.com/4116/4886153427_b6e2641881.jpg\r\n'
p361
aS'http://farm3.static.flickr.com/2285/2099419686_c1b22925bd.jpg\r\n'
p362
aS'http://farm3.static.flickr.com/2458/3752186668_89f7fcc680.jpg\r\n'
p363
aS'http://farm4.static.flickr.com/3294/2922916639_22540c29de.jpg\r\n'
p364
aS'http://farm3.static.flickr.com/2788/4163863218_96404a94d5.jpg\r\n'
p365
aS'http://farm4.static.flickr.com/3645/3429935970_ba3c97b25a.jpg\r\n'
p366
aS'http://farm5.static.flickr.com/4005/4707144146_80066701a2.jpg\r\n'
p367
aS'http://farm4.static.flickr.com/3157/2922924381_00b386a596.jpg\r\n'
p368
aS'http://farm5.static.flickr.com/4146/5038145124_8cd50be02c.jpg\r\n'
p369
aS'http://www.ihnfa.hn/images/Desparasitantes.JPG\r\n'
p370
aS'http://farm3.static.flickr.com/2021/1500053732_f4e19bef79.jpg\r\n'
p371
aS'http://farm4.static.flickr.com/3579/3411902408_9b899656c9.jpg\r\n'
p372
aS'http://farm1.static.flickr.com/11/14207437_7fbdcea60e.jpg\r\n'
p373
aS'http://farm5.static.flickr.com/4014/4379738081_8b6f6cd5a7.jpg\r\n'
p374
aS'http://farm3.static.flickr.com/2210/2071493016_85bf13dc67.jpg\r\n'
p375
aS'http://farm3.static.flickr.com/2474/3951188986_f7183f3860.jpg\r\n'
p376
aS'http://farm2.static.flickr.com/1422/1335124711_13de513049.jpg\r\n'
p377
aS'http://farm4.static.flickr.com/3456/3209397260_2b978756b8.jpg\r\n'
p378
aS'http://farm5.static.flickr.com/4068/4441295819_2f6dbdf834.jpg\r\n'
p379
aS'http://farm2.static.flickr.com/1065/1476232160_999ce0c32a.jpg\r\n'
p380
aS'http://farm4.static.flickr.com/3031/3249830798_67a2a0ecf5.jpg\r\n'
p381
aS'http://farm4.static.flickr.com/3201/3047670216_b4c03a58c4.jpg\r\n'
p382
aS'http://farm3.static.flickr.com/2003/2263290288_3942293986.jpg\r\n'
p383
aS'http://farm3.static.flickr.com/2463/3547942014_e46c7d8fb5.jpg\r\n'
p384
aS'http://farm2.static.flickr.com/1066/4732010308_2524ea6cc7.jpg\r\n'
p385
aS'http://farm1.static.flickr.com/70/196865164_c885d9c36c.jpg\r\n'
p386
aS'http://farm2.static.flickr.com/1405/1384977261_13021ea94b.jpg\r\n'
p387
aS'http://farm3.static.flickr.com/2479/3603794959_40a1eb7151.jpg\r\n'
p388
aS'http://farm2.static.flickr.com/1021/3171808189_a76b7d7c38.jpg\r\n'
p389
aS'http://farm4.static.flickr.com/3239/2792119519_0eddc0005f.jpg\r\n'
p390
aS'http://farm3.static.flickr.com/2532/3837339423_d58d54e4f1.jpg\r\n'
p391
aS'http://farm5.static.flickr.com/4119/4850431635_ddeb15ce76.jpg\r\n'
p392
aS'http://farm3.static.flickr.com/2091/2334219286_d7cc29795d.jpg\r\n'
p393
aS'http://farm2.static.flickr.com/1250/1022544459_f6f0e33d91.jpg\r\n'
p394
aS'http://farm3.static.flickr.com/2521/4229152721_cbe244ea24.jpg\r\n'
p395
aS'http://farm3.static.flickr.com/2367/2223262733_29febd9ab7.jpg\r\n'
p396
aS'http://farm2.static.flickr.com/1091/1466542228_abad6b998a.jpg\r\n'
p397
aS'http://farm1.static.flickr.com/118/290486065_6e8e97e2ff.jpg\r\n'
p398
aS'http://farm4.static.flickr.com/3296/3144845408_3d7421b422.jpg\r\n'
p399
aS'http://farm1.static.flickr.com/27/68972248_f3b35d5beb.jpg\r\n'
p400
aS'http://farm4.static.flickr.com/3257/3142255496_6c29c01d22.jpg\r\n'
p401
aS'http://farm5.static.flickr.com/4061/4657708760_b2057c7b1e.jpg\r\n'
p402
aS'http://farm1.static.flickr.com/184/474081136_894d0b0552.jpg\r\n'
p403
aS'http://farm4.static.flickr.com/3229/3076188115_8554605df7.jpg\r\n'
p404
aS'http://farm2.static.flickr.com/1321/4731366553_780571fe16.jpg\r\n'
p405
aS'http://farm2.static.flickr.com/1332/805864759_389daa891e.jpg\r\n'
p406
aS'http://farm1.static.flickr.com/55/171454680_ccd81aefcb.jpg\r\n'
p407
aS'http://farm3.static.flickr.com/2228/1650218061_f312215d89.jpg\r\n'
p408
aS'http://farm2.static.flickr.com/1054/700306804_e37ec08a13.jpg\r\n'
p409
aS'http://farm5.static.flickr.com/4104/4847295843_e428861dbd.jpg\r\n'
p410
aS'http://farm3.static.flickr.com/2297/2278952977_dc633ebfe8.jpg\r\n'
p411
aS'http://farm5.static.flickr.com/4135/4905308185_57224e1fd2.jpg\r\n'
p412
aS'http://farm3.static.flickr.com/2683/4192858929_5618251ecf.jpg\r\n'
p413
aS'http://farm2.static.flickr.com/1300/4609611626_3db5543002.jpg\r\n'
p414
aS'http://farm4.static.flickr.com/3664/3506056992_4d9f80d0dd.jpg\r\n'
p415
aS'http://farm3.static.flickr.com/2320/1837743174_85a0392adf.jpg\r\n'
p416
aS'http://farm3.static.flickr.com/2259/1505204160_2ed3ae9a3d.jpg\r\n'
p417
aS'http://farm3.static.flickr.com/2035/1651088890_09985f3a3c.jpg\r\n'
p418
aS'http://farm4.static.flickr.com/3228/3140200183_f607de3bdf.jpg\r\n'
p419
aS'http://farm1.static.flickr.com/190/3264779586_292d75e922.jpg\r\n'
p420
aS'http://farm3.static.flickr.com/2213/2056970842_627b9a19ca.jpg\r\n'
p421
aS'http://farm4.static.flickr.com/3003/2344745641_7918feddc5.jpg\r\n'
p422
aS'http://farm4.static.flickr.com/3293/2992694157_bb6048806f.jpg\r\n'
p423
aS'http://farm4.static.flickr.com/3513/3237230301_fbd159c984.jpg\r\n'
p424
aS'http://farm2.static.flickr.com/1006/667860612_3fa20a6b0e.jpg\r\n'
p425
aS'http://farm2.static.flickr.com/1163/1140722734_15e2acbec2.jpg\r\n'
p426
aS'http://farm3.static.flickr.com/2390/2478534739_222f0a12bc.jpg\r\n'
p427
aS'http://farm1.static.flickr.com/226/469908450_2a4fd6e5b4.jpg\r\n'
p428
aS'http://farm1.static.flickr.com/25/47365528_1239073ae2.jpg\r\n'
p429
aS'http://farm1.static.flickr.com/23/27739406_481bd4da91.jpg\r\n'
p430
aS'http://farm1.static.flickr.com/155/379849054_c7c4e03027.jpg\r\n'
p431
aS'http://farm1.static.flickr.com/241/445515043_59b93aef20.jpg\r\n'
p432
aS'http://farm4.static.flickr.com/3122/2485086510_b0def73212.jpg\r\n'
p433
aS'http://farm1.static.flickr.com/23/29843046_bd08d68b20.jpg\r\n'
p434
aS'http://farm1.static.flickr.com/228/492214123_673de725fb.jpg\r\n'
p435
aS'http://farm1.static.flickr.com/198/488653528_0f460b9e5d.jpg\r\n'
p436
aS'http://farm4.static.flickr.com/3254/3090942728_527a768246.jpg\r\n'
p437
aS'http://farm4.static.flickr.com/3477/3176238456_7b06fb5f1d.jpg\r\n'
p438
aS'http://farm4.static.flickr.com/3154/3078279349_4960d2faba.jpg\r\n'
p439
aS'http://farm4.static.flickr.com/3239/2917760922_1828b6fcbb.jpg\r\n'
p440
aS'http://farm4.static.flickr.com/3209/2882186950_b9a0dbf857.jpg\r\n'
p441
aS'http://farm4.static.flickr.com/3229/3034908970_3e0df2f92b.jpg\r\n'
p442
aS'http://farm1.static.flickr.com/237/445938858_63a91a7ff9.jpg\r\n'
p443
aS'http://farm1.static.flickr.com/24/45433672_ae142d6acd.jpg\r\n'
p444
aS'http://farm3.static.flickr.com/2441/3681318983_491bf7bebd.jpg\r\n'
p445
aS'http://farm3.static.flickr.com/2164/2312793229_16be148b36.jpg\r\n'
p446
aS'http://farm4.static.flickr.com/3264/2623850271_bdc11b606d.jpg\r\n'
p447
aS'http://farm3.static.flickr.com/2514/3920704250_d0b9a375dd.jpg\r\n'
p448
aS'http://farm3.static.flickr.com/2509/3838254636_286b932810.jpg\r\n'
p449
aS'http://farm3.static.flickr.com/2129/2198568904_36b033fe8f.jpg\r\n'
p450
aS'http://farm3.static.flickr.com/2252/2446004171_ef1400d90a.jpg\r\n'
p451
aS'http://farm3.static.flickr.com/2251/2300905865_0db0868e09.jpg\r\n'
p452
aS'http://farm3.static.flickr.com/2405/2132678825_bb94d13123.jpg\r\n'
p453
aS'http://farm1.static.flickr.com/154/431450054_6093707259.jpg\r\n'
p454
aS'http://farm3.static.flickr.com/2662/3932642877_0559fa719b.jpg\r\n'
p455
aS'http://farm1.static.flickr.com/83/275418250_7072d8cfbe.jpg\r\n'
p456
aS'http://farm4.static.flickr.com/3631/3523896515_0d68c73b2b.jpg\r\n'
p457
aS'http://farm3.static.flickr.com/2246/2275744652_eacd10a485.jpg\r\n'
p458
aS'http://farm4.static.flickr.com/3474/3699403192_e2b48a1d5a.jpg\r\n'
p459
aS'http://farm4.static.flickr.com/3104/2708849263_da154995e9.jpg\r\n'
p460
aS'http://farm4.static.flickr.com/3175/3018228659_ff1b433012.jpg\r\n'
p461
aS'http://farm3.static.flickr.com/2516/4079055071_7bfb6529e5.jpg\r\n'
p462
aS'http://farm3.static.flickr.com/2047/2460872549_351db352dd.jpg\r\n'
p463
aS'http://farm4.static.flickr.com/3294/2869976273_e421a98cc1.jpg\r\n'
p464
aS'http://farm1.static.flickr.com/112/314863364_d9b64086b9.jpg\r\n'
p465
aS'http://farm4.static.flickr.com/3058/2300206983_011eef66f8.jpg\r\n'
p466
aS'http://farm5.static.flickr.com/4091/5024875217_27c9567388.jpg\r\n'
p467
aS'http://farm4.static.flickr.com/3364/3624649457_58b2908f6a.jpg\r\n'
p468
aS'http://farm4.static.flickr.com/3218/2687039914_5de940e461.jpg\r\n'
p469
aS'http://farm1.static.flickr.com/134/328303986_57529e0e6d.jpg\r\n'
p470
aS'http://farm3.static.flickr.com/2289/2138442194_f30d73a4b9.jpg\r\n'
p471
aS'http://farm4.static.flickr.com/3090/3140199795_35374fdc97.jpg\r\n'
p472
aS'http://farm3.static.flickr.com/2102/2421042893_d14023f34d.jpg\r\n'
p473
aS'http://farm3.static.flickr.com/2347/1524235123_d63b24b67a.jpg\r\n'
p474
aS'http://farm1.static.flickr.com/115/300718857_2923e02e75.jpg\r\n'
p475
aS'http://farm3.static.flickr.com/2545/4079804044_6d4f45ac3d.jpg\r\n'
p476
aS'http://farm3.static.flickr.com/2684/4161817331_9224376b05.jpg\r\n'
p477
aS'http://farm3.static.flickr.com/2231/2173637007_2843a4335c.jpg\r\n'
p478
aS'http://farm5.static.flickr.com/4145/5035168025_91027151f0.jpg\r\n'
p479
aS'http://farm4.static.flickr.com/3146/2706594129_629bba8552.jpg\r\n'
p480
aS'http://farm1.static.flickr.com/51/133189647_9f20865d6d.jpg\r\n'
p481
aS'http://farm2.static.flickr.com/1100/4593184155_8f4f3f652f.jpg\r\n'
p482
aS'http://farm3.static.flickr.com/2426/3854861699_ee407297b4.jpg\r\n'
p483
aS'http://farm3.static.flickr.com/2021/2135699176_56d4acfedd.jpg\r\n'
p484
aS'http://farm1.static.flickr.com/101/284625472_bcba4055aa.jpg\r\n'
p485
aS'http://farm3.static.flickr.com/2563/3683938822_16e6fda81a.jpg\r\n'
p486
aS'http://farm5.static.flickr.com/4053/4657088077_fb8163dffa.jpg\r\n'
p487
aS'http://farm4.static.flickr.com/3294/2879253199_d7b97ccda3.jpg\r\n'
p488
aS'http://farm4.static.flickr.com/3025/2333416038_0c4b0e1d80.jpg\r\n'
p489
aS'http://farm1.static.flickr.com/10/13882255_c7a84265f7.jpg\r\n'
p490
aS'http://farm1.static.flickr.com/172/435378212_a13a0adf07.jpg\r\n'
p491
aS'http://farm5.static.flickr.com/4140/4780024157_8b0562e020.jpg\r\n'
p492
aS'http://farm3.static.flickr.com/2638/4162703448_38f47da9db.jpg\r\n'
p493
aS'http://farm1.static.flickr.com/65/202024199_a111267c99.jpg\r\n'
p494
aS'http://farm3.static.flickr.com/2544/3861909540_f2ede6155d.jpg\r\n'
p495
aS'http://farm1.static.flickr.com/51/133286379_1cc8c1bbb8.jpg\r\n'
p496
aS'http://farm3.static.flickr.com/2195/2222153144_9930da4064.jpg\r\n'
p497
aS'http://farm3.static.flickr.com/2380/2287226556_0ecb9dd879.jpg\r\n'
p498
aS'http://farm3.static.flickr.com/2553/4162746308_21ea0e117e.jpg\r\n'
p499
aS'http://farm5.static.flickr.com/4093/4887410903_edbc877f4c.jpg\r\n'
p500
aS'http://farm3.static.flickr.com/2738/4215317045_fe414bfe5d.jpg\r\n'
p501
aS'http://farm3.static.flickr.com/2160/2142036283_f4d6c795d0.jpg\r\n'
p502
aS'http://farm3.static.flickr.com/2157/2056970840_88968be7f1.jpg\r\n'
p503
aS'http://farm4.static.flickr.com/3624/3487267690_7cd66d503f.jpg\r\n'
p504
aS'http://farm4.static.flickr.com/3573/3296948699_ac4b3f94c9.jpg\r\n'
p505
aS'http://farm4.static.flickr.com/3269/2765782484_5bb251a75f.jpg\r\n'
p506
aS'http://farm2.static.flickr.com/1303/4707128426_abf005e111.jpg\r\n'
p507
aS'http://farm4.static.flickr.com/3058/2914939581_198c1235e7.jpg\r\n'
p508
aS'http://farm4.static.flickr.com/3043/2787217542_2d51e3f06b.jpg\r\n'
p509
aS'http://farm3.static.flickr.com/2234/2070695285_79a5735ca2.jpg\r\n'
p510
aS'http://farm2.static.flickr.com/1027/1408054747_ca5f5641a3.jpg\r\n'
p511
aS'http://farm3.static.flickr.com/2660/3742944514_18769d7b16.jpg\r\n'
p512
aS'http://farm3.static.flickr.com/2339/2216662737_2057f1dd8a.jpg\r\n'
p513
aS'http://farm4.static.flickr.com/3585/3413349262_0600946b22.jpg\r\n'
p514
aS'http://farm1.static.flickr.com/31/52759551_874361e944.jpg\r\n'
p515
aS'http://farm4.static.flickr.com/3087/2344268159_2fe57c3ba3.jpg\r\n'
p516
aS'http://farm4.static.flickr.com/3265/3232409334_31101c89b3.jpg\r\n'
p517
aS'http://farm1.static.flickr.com/43/95845949_5492443427.jpg\r\n'
p518
aS'http://farm5.static.flickr.com/4149/5038143344_ea30a04a5d.jpg\r\n'
p519
aS'http://farm5.static.flickr.com/4094/4891920302_c1844bd082.jpg\r\n'
p520
aS'http://farm3.static.flickr.com/2076/1651069954_6fa058e148.jpg\r\n'
p521
aS'http://farm3.static.flickr.com/2455/3647773501_43ea002995.jpg\r\n'
p522
aS'http://farm4.static.flickr.com/3522/3236855737_49cb6ce475.jpg\r\n'
p523
aS'http://farm4.static.flickr.com/3354/3492979522_9ae6ed06ec.jpg\r\n'
p524
aS'http://farm3.static.flickr.com/2209/1987259680_1bf550eee2.jpg\r\n'
p525
aS'http://farm3.static.flickr.com/2131/2307806025_a4a998f088.jpg\r\n'
p526
aS'http://farm3.static.flickr.com/2367/2809476099_2c4d7f811a.jpg\r\n'
p527
aS'http://farm4.static.flickr.com/3077/3101589937_0c2006e649.jpg\r\n'
p528
aS'http://farm3.static.flickr.com/2764/4176347583_47d7c4e8de.jpg\r\n'
p529
aS'http://farm4.static.flickr.com/3324/3480586655_b3bdd6d75a.jpg\r\n'
p530
aS'http://farm3.static.flickr.com/2335/2061796359_e2db29dd8f.jpg\r\n'
p531
aS'http://farm4.static.flickr.com/3330/3184069864_93329c9455.jpg\r\n'
p532
aS'http://farm4.static.flickr.com/3108/3243580688_1d112c6dfa.jpg\r\n'
p533
aS'http://farm3.static.flickr.com/2766/4022005267_9bc24c45ab.jpg\r\n'
p534
aS'http://farm3.static.flickr.com/2632/4023944102_b2151355d2.jpg\r\n'
p535
aS'http://farm3.static.flickr.com/2154/2454930626_27ba861f38.jpg\r\n'
p536
aS'http://farm3.static.flickr.com/2359/2301030516_6be8ce01db.jpg\r\n'
p537
aS'http://farm5.static.flickr.com/4021/4641985697_f9c3c34081.jpg\r\n'
p538
aS'http://farm3.static.flickr.com/2654/4133552693_a594efaaf1.jpg\r\n'
p539
aS'http://farm5.static.flickr.com/4010/4521880600_3a340d913c.jpg\r\n'
p540
aS'http://farm1.static.flickr.com/78/209769323_427612bf25.jpg\r\n'
p541
aS'http://farm3.static.flickr.com/2625/3940858162_d8332a35e9.jpg\r\n'
p542
aS'http://farm1.static.flickr.com/16/23232100_540ed843ff.jpg\r\n'
p543
aS'http://farm3.static.flickr.com/2297/1520400856_e1ceeef099.jpg\r\n'
p544
aS'http://farm4.static.flickr.com/3406/3237754102_63efa0873b.jpg\r\n'
p545
aS'http://farm3.static.flickr.com/2295/2070691655_c13fd3805f.jpg\r\n'
p546
aS'http://farm4.static.flickr.com/3299/3197558487_01d04f51d3.jpg\r\n'
p547
aS'http://farm4.static.flickr.com/3272/2547660951_f9097b7b73.jpg\r\n'
p548
aS'http://farm3.static.flickr.com/2431/3854182377_59d39cb0c5.jpg\r\n'
p549
aS'http://farm3.static.flickr.com/2576/3854968304_40e6cab739.jpg\r\n'
p550
aS'http://farm1.static.flickr.com/27/55105740_abad099f0b.jpg\r\n'
p551
aS'http://farm3.static.flickr.com/2447/3791989839_9be85e62c3.jpg\r\n'
p552
aS'http://farm3.static.flickr.com/2024/2170616096_97359c3fcf.jpg\r\n'
p553
aS'http://farm1.static.flickr.com/25/39960708_95a6c91599.jpg\r\n'
p554
aS'http://farm3.static.flickr.com/2628/3954332611_3ece97694d.jpg\r\n'
p555
aS'http://farm4.static.flickr.com/3069/2906238965_42bc017fbd.jpg\r\n'
p556
aS'http://farm4.static.flickr.com/3545/3371594268_dc6cc71be7.jpg\r\n'
p557
aS'http://farm2.static.flickr.com/1291/1385753026_a2dc915df2.jpg\r\n'
p558
aS'http://farm4.static.flickr.com/3118/2868381547_4b6e396243.jpg\r\n'
p559
aS'http://farm3.static.flickr.com/2290/2202654430_712afae36f.jpg\r\n'
p560
aS'http://farm1.static.flickr.com/100/251146662_8eaecf651b.jpg\r\n'
p561
aS'http://farm3.static.flickr.com/2491/3950406921_5c161b2e2e.jpg\r\n'
p562
aS'http://farm2.static.flickr.com/1315/1437696488_811ea040e6.jpg\r\n'
p563
aS'http://farm4.static.flickr.com/3455/3267191047_5382f16384.jpg\r\n'
p564
aS'http://farm1.static.flickr.com/160/371223458_4b360d820f.jpg\r\n'
p565
aS'http://farm3.static.flickr.com/2344/2259818343_7fb1cf9a15.jpg\r\n'
p566
aS'http://farm4.static.flickr.com/3190/2852667048_ac7e343014.jpg\r\n'
p567
aS'http://farm4.static.flickr.com/3174/2597187441_321f848bec.jpg\r\n'
p568
aS'http://farm5.static.flickr.com/4012/4473697595_a1ec804d6c.jpg\r\n'
p569
aS'http://farm3.static.flickr.com/2471/3547132865_508b4fcdbb.jpg\r\n'
p570
aS'http://farm4.static.flickr.com/3509/3213426230_27930627e3.jpg\r\n'
p571
aS'http://farm3.static.flickr.com/2074/2126085860_3360066a47.jpg\r\n'
p572
aS'http://farm4.static.flickr.com/3664/3616031288_03236ac1d0.jpg\r\n'
p573
aS'http://farm5.static.flickr.com/4053/4640304346_d8b406fe8a.jpg\r\n'
p574
aS'http://farm5.static.flickr.com/4128/5037551739_dd1d832016.jpg\r\n'
p575
aS'http://farm2.static.flickr.com/1202/1060220821_3db2ee9d55.jpg\r\n'
p576
aS'http://farm4.static.flickr.com/3555/3450696430_3b829832b2.jpg\r\n'
p577
aS'http://farm5.static.flickr.com/4060/4459982527_b2a97a54a5.jpg\r\n'
p578
aS'http://farm1.static.flickr.com/125/318492322_552cc215fa.jpg\r\n'
p579
aS'http://farm5.static.flickr.com/4035/4309710228_d9e9b4e43d.jpg\r\n'
p580
aS'http://farm4.static.flickr.com/3288/2338789212_8b9ea26010.jpg\r\n'
p581
aS'http://farm1.static.flickr.com/138/359639235_dcf352c0b2.jpg\r\n'
p582
aS'http://farm3.static.flickr.com/2693/4479003470_cf6153269b.jpg\r\n'
p583
aS'http://farm2.static.flickr.com/1063/1186538997_f5a2978104.jpg\r\n'
p584
aS'http://farm4.static.flickr.com/3626/3695831872_f1275c4df9.jpg\r\n'
p585
aS'http://farm1.static.flickr.com/25/63182620_1c8412b8b2.jpg\r\n'
p586
aS'http://farm4.static.flickr.com/3472/4079054959_55a4119445.jpg\r\n'
p587
aS'http://farm1.static.flickr.com/205/512506212_c0f88fdb0d.jpg\r\n'
p588
aS'http://farm5.static.flickr.com/4006/4706503899_65ceddbd83.jpg\r\n'
p589
aS'http://farm4.static.flickr.com/3053/2733012964_6aa6a869aa.jpg\r\n'
p590
aS'http://farm3.static.flickr.com/2155/2062501534_5b7fc04a5b.jpg\r\n'
p591
aS'http://farm4.static.flickr.com/3111/2567370261_f6c0b5815f.jpg\r\n'
p592
aS'http://farm1.static.flickr.com/9/85598311_2799931f0b.jpg\r\n'
p593
aS'http://farm4.static.flickr.com/3443/3918182591_5eb09737b4.jpg\r\n'
p594
aS'http://farm4.static.flickr.com/3608/3645218373_86af487f45.jpg\r\n'
p595
aS'http://farm4.static.flickr.com/3483/3283444734_8892b95b8e.jpg\r\n'
p596
aS'http://farm4.static.flickr.com/3278/2942472814_e272513181.jpg\r\n'
p597
aS'http://farm1.static.flickr.com/55/121471915_2620101c3d.jpg\r\n'
p598
aS'http://farm4.static.flickr.com/3462/3732475849_d089807cdc.jpg\r\n'
p599
aS'http://farm4.static.flickr.com/3284/2994477036_f850085dc0.jpg\r\n'
p600
aS'http://farm1.static.flickr.com/31/48230544_e96e623d99.jpg\r\n'
p601
aS'http://farm4.static.flickr.com/3022/3092758340_709b8843d5.jpg\r\n'
p602
aS'http://farm4.static.flickr.com/3131/2547563338_9d646ce96c.jpg\r\n'
p603
aS'http://farm4.static.flickr.com/3269/3060824350_d34262af6e.jpg\r\n'
p604
aS'http://farm4.static.flickr.com/3206/3016511782_5776fc1d47.jpg\r\n'
p605
aS'http://farm1.static.flickr.com/121/312475981_2b840b935a.jpg\r\n'
p606
aS'http://farm3.static.flickr.com/2137/1651081940_a5ea1c8e42.jpg\r\n'
p607
aS'http://farm4.static.flickr.com/3454/3236823209_59c699e046.jpg\r\n'
p608
aS'http://farm4.static.flickr.com/3381/3427572370_9809f2e9cb.jpg\r\n'
p609
aS'http://farm1.static.flickr.com/118/300242466_51ccacb0cd.jpg\r\n'
p610
aS'http://farm5.static.flickr.com/4020/4489991858_fd456c5197.jpg\r\n'
p611
aS'http://farm5.static.flickr.com/4091/5037531663_7fca5f887e.jpg\r\n'
p612
aS'http://farm3.static.flickr.com/2732/4473540884_323705003b.jpg\r\n'
p613
aS'http://farm2.static.flickr.com/1008/1322981223_98f4f0d5ec.jpg\r\n'
p614
aS'http://farm1.static.flickr.com/215/492466330_964eb216a7.jpg\r\n'
p615
aS'http://farm3.static.flickr.com/2538/3698518307_8483d1ff67.jpg\r\n'
p616
aS'http://farm4.static.flickr.com/3058/2862242240_5eb45f1c75.jpg\r\n'
p617
aS'http://farm3.static.flickr.com/2072/2194812849_01bdbb70a1.jpg\r\n'
p618
aS'http://farm3.static.flickr.com/2010/2226828271_5baff43617.jpg\r\n'
p619
aS'http://farm4.static.flickr.com/3169/2401335695_57b5299342.jpg\r\n'
p620
aS'http://farm2.static.flickr.com/1259/1440994682_aef4460b6a.jpg\r\n'
p621
aS'http://farm4.static.flickr.com/3482/3459918659_8c5884719e.jpg\r\n'
p622
aS'http://farm4.static.flickr.com/3588/3461543018_d7c705cf9b.jpg\r\n'
p623
aS'http://farm2.static.flickr.com/1111/705185567_93550e0431.jpg\r\n'
p624
aS'http://farm2.static.flickr.com/1060/1475348795_16581f02e0.jpg\r\n'
p625
aS'http://farm5.static.flickr.com/4023/4284423813_11584a695a.jpg\r\n'
p626
aS'http://farm3.static.flickr.com/2149/2501178969_fd08d86349.jpg\r\n'
p627
aS'http://farm4.static.flickr.com/3046/2624351980_d545ab660d.jpg\r\n'
p628
aS'http://farm4.static.flickr.com/3013/3077588281_013f8e98a5.jpg\r\n'
p629
aS'http://farm4.static.flickr.com/3585/3394035489_6c85b5bdb8.jpg\r\n'
p630
aS'http://farm1.static.flickr.com/136/331066591_d36f07984a.jpg\r\n'
p631
aS'http://farm2.static.flickr.com/1324/655309132_2923d5ef75.jpg\r\n'
p632
aS'http://farm5.static.flickr.com/4002/4193618232_fe15d2a254.jpg\r\n'
p633
aS'http://farm4.static.flickr.com/3174/3102171035_116b5ed5e8.jpg\r\n'
p634
aS'http://farm1.static.flickr.com/37/80172022_4664e957e5.jpg\r\n'
p635
aS'http://farm2.static.flickr.com/1003/1157743571_62cad6990a.jpg\r\n'
p636
aS'http://farm3.static.flickr.com/2481/3918974318_9cc916b06b.jpg\r\n'
p637
aS'http://farm4.static.flickr.com/3345/3588637679_1b101d905e.jpg\r\n'
p638
aS'http://farm1.static.flickr.com/213/512503046_0468b605ce.jpg\r\n'
p639
aS'http://farm4.static.flickr.com/3213/3036888508_785c55a6c5.jpg\r\n'
p640
aS'http://farm1.static.flickr.com/126/372426277_7eb138e896.jpg\r\n'
p641
aS'http://farm1.static.flickr.com/48/174241546_ad67b7787f.jpg\r\n'
p642
aS'http://farm4.static.flickr.com/3365/3236798039_60f2ce43e7.jpg\r\n'
p643
aS'http://farm3.static.flickr.com/2297/2253350886_3eb0d827fd.jpg\r\n'
p644
aS'http://farm3.static.flickr.com/2267/2130138329_a9dc65d6d4.jpg\r\n'
p645
aS'http://farm1.static.flickr.com/208/512502788_951b19d19b.jpg\r\n'
p646
aS'http://farm4.static.flickr.com/3146/3403382543_d3da5a1e2b.jpg\r\n'
p647
aS'http://farm4.static.flickr.com/3538/3795694690_047af48e43.jpg\r\n'
p648
aS'http://farm5.static.flickr.com/4096/4831560302_8e50b7ac99.jpg\r\n'
p649
aS'http://farm4.static.flickr.com/3456/3206077364_660c9400f0.jpg\r\n'
p650
aS'http://farm4.static.flickr.com/3469/3204227859_e4fe1e8db0.jpg\r\n'
p651
aS'http://farm5.static.flickr.com/4008/4707137424_d2c7af7bc5.jpg\r\n'
p652
aS'http://farm4.static.flickr.com/3110/3140964400_821f6cda65.jpg\r\n'
p653
aS'http://farm3.static.flickr.com/2308/2073202321_221d670bb6.jpg\r\n'
p654
aS'http://farm2.static.flickr.com/1154/538599839_e417c0f317.jpg\r\n'
p655
aS'http://farm3.static.flickr.com/2646/4193617538_3160c46600.jpg\r\n'
p656
aS'http://farm5.static.flickr.com/4093/4766866100_1ee13df992.jpg\r\n'
p657
aS'http://farm4.static.flickr.com/3392/3446240487_0541e8baee.jpg\r\n'
p658
aS'http://farm4.static.flickr.com/3452/3697959941_1c508d9be4.jpg\r\n'
p659
aS'http://farm4.static.flickr.com/3622/3522276490_83c1d92e01.jpg\r\n'
p660
aS'http://farm4.static.flickr.com/3224/3283658242_bee7cfbe01.jpg\r\n'
p661
aS'http://farm3.static.flickr.com/2771/4034014821_a6f6ca9388.jpg\r\n'
p662
aS'http://farm3.static.flickr.com/2287/2528288429_e4205e7611.jpg\r\n'
p663
aS'http://farm1.static.flickr.com/24/39337127_b96524230b.jpg\r\n'
p664
aS'http://farm3.static.flickr.com/2409/2224316524_4925417806.jpg\r\n'
p665
aS'http://farm5.static.flickr.com/4087/4847294121_0bc546933c.jpg\r\n'
p666
aS'http://farm4.static.flickr.com/3025/2668531270_18efb9eb57.jpg\r\n'
p667
aS'http://farm1.static.flickr.com/102/297544508_579e21adff.jpg\r\n'
p668
aS'http://farm3.static.flickr.com/2384/1650211421_28dde4735b.jpg\r\n'
p669
aS'http://farm5.static.flickr.com/4031/4421142824_330fba9208.jpg\r\n'
p670
aS'http://farm5.static.flickr.com/4026/4707123096_198c30b657.jpg\r\n'
p671
aS'http://farm3.static.flickr.com/2082/1651043182_967f44420e.jpg\r\n'
p672
aS'http://farm4.static.flickr.com/3265/2842771615_5c511ef398.jpg\r\n'
p673
aS'http://farm3.static.flickr.com/2368/2063429313_75d46b8dcf.jpg\r\n'
p674
aS'http://farm3.static.flickr.com/2366/2536588347_4185050a5a.jpg\r\n'
p675
aS'http://farm4.static.flickr.com/3174/3046834253_a237f44445.jpg\r\n'
p676
aS'http://farm3.static.flickr.com/2300/2301035282_95d0ee32f0.jpg\r\n'
p677
aS'http://farm4.static.flickr.com/3180/2644217706_8ccae21d4c.jpg\r\n'
p678
aS'http://farm2.static.flickr.com/1360/944059668_51b5ba7e71.jpg\r\n'
p679
aS'http://farm3.static.flickr.com/2002/1651018804_7844956d2f.jpg\r\n'
p680
aS'http://farm1.static.flickr.com/87/241779705_f8b3b9810a.jpg\r\n'
p681
aS'http://farm1.static.flickr.com/32/95940719_076f980e0b.jpg\r\n'
p682
aS'http://farm3.static.flickr.com/2406/1848557773_210b1b3700.jpg\r\n'
p683
aS'http://farm1.static.flickr.com/156/408794777_25e97e1655.jpg\r\n'
p684
aS'http://farm4.static.flickr.com/3552/3383151137_78e645b4e9.jpg\r\n'
p685
aS'http://farm4.static.flickr.com/3400/3265088651_6287fa2365.jpg\r\n'
p686
aS'http://farm2.static.flickr.com/1005/1095052533_c8f4045ab3.jpg\r\n'
p687
aS'http://farm3.static.flickr.com/2368/2205210393_6f98e71845.jpg\r\n'
p688
aS'http://farm4.static.flickr.com/3250/3083077520_e315d252d9.jpg\r\n'
p689
aS'http://farm1.static.flickr.com/117/270368928_f023aba0bb.jpg\r\n'
p690
aS'http://farm3.static.flickr.com/2732/4192309291_118100d64b.jpg\r\n'
p691
aS'http://farm4.static.flickr.com/3488/3237500198_ec3b786c97.jpg\r\n'
p692
aS'http://farm4.static.flickr.com/3202/2297665372_7ab1e8679b.jpg\r\n'
p693
aS'http://farm4.static.flickr.com/3384/3184043530_283cb9d61c.jpg\r\n'
p694
aS'http://farm5.static.flickr.com/4134/4741724897_65a4072e9a.jpg\r\n'
p695
aS'http://farm1.static.flickr.com/93/261670334_b6fc9ba579.jpg\r\n'
p696
aS'http://farm4.static.flickr.com/3379/3411750897_9c515b428f.jpg\r\n'
p697
aS'http://farm3.static.flickr.com/2088/2292169331_abea73d195.jpg\r\n'
p698
aS'http://farm2.static.flickr.com/1172/1350996049_909384af7f.jpg\r\n'
p699
aS'http://farm4.static.flickr.com/3172/2960388334_3e37014cc0.jpg\r\n'
p700
aS'http://farm1.static.flickr.com/48/130512126_26b40ac4a7.jpg\r\n'
p701
aS'http://farm5.static.flickr.com/4063/4678130929_98e3965db1.jpg\r\n'
p702
aS'http://farm4.static.flickr.com/3076/3092096802_8d80b59d73.jpg\r\n'
p703
aS'http://farm5.static.flickr.com/4082/4879657391_e244bef725.jpg\r\n'
p704
aS'http://farm4.static.flickr.com/3026/3012801358_62df12e205.jpg\r\n'
p705
aS'http://farm3.static.flickr.com/2602/3825330195_291f9445b0.jpg\r\n'
p706
aS'http://farm1.static.flickr.com/136/343183056_f7449e1ebc.jpg\r\n'
p707
aS'http://farm2.static.flickr.com/1280/1096043740_fba992a16a.jpg\r\n'
p708
aS'http://farm4.static.flickr.com/3274/3046840629_5cd17b36bb.jpg\r\n'
p709
aS'http://farm2.static.flickr.com/1039/1338673064_dbf158ab6f.jpg\r\n'
p710
aS'http://farm3.static.flickr.com/2276/1650181081_2307466d17.jpg\r\n'
p711
aS'http://farm4.static.flickr.com/3267/2906237127_c8f4b1af5e.jpg\r\n'
p712
aS'http://farm4.static.flickr.com/3337/3337987833_4e492c9aa9.jpg\r\n'
p713
aS'http://farm5.static.flickr.com/4134/4887410501_a30380ffc5.jpg\r\n'
p714
aS'http://farm3.static.flickr.com/2345/1651005116_5e8bd1188b.jpg\r\n'
p715
aS'http://farm1.static.flickr.com/198/456374461_70b1f33029.jpg\r\n'
p716
aS'http://farm4.static.flickr.com/3030/2704459546_2fb8355f09.jpg\r\n'
p717
aS'http://farm3.static.flickr.com/2541/3854990560_2a36dd8fdc.jpg\r\n'
p718
aS'http://farm4.static.flickr.com/3080/2407601428_b777e978e7.jpg\r\n'
p719
aS'http://farm4.static.flickr.com/3134/2699568250_ddaee4ae4b.jpg\r\n'
p720
aS'http://farm1.static.flickr.com/14/15678395_28e2bca6f2.jpg\r\n'
p721
aS'http://farm4.static.flickr.com/3611/3422634401_bd5eff5f85.jpg\r\n'
p722
aS'http://farm3.static.flickr.com/2045/2478534799_9119d7abc5.jpg\r\n'
p723
aS'http://farm3.static.flickr.com/2593/3876698684_b22b49afe4.jpg\r\n'
p724
aS'http://farm3.static.flickr.com/2633/3758167670_fa4b04be2c.jpg\r\n'
p725
aS'http://farm4.static.flickr.com/3490/3249103263_80ac3fca2e.jpg\r\n'
p726
aS'http://farm3.static.flickr.com/2244/2224056254_b43d29914c.jpg\r\n'
p727
aS'http://farm3.static.flickr.com/2037/1650123579_baf7e1bdb8.jpg\r\n'
p728
aS'http://farm2.static.flickr.com/1233/1290885660_29a4d67812.jpg\r\n'
p729
aS'http://farm5.static.flickr.com/4058/4580907219_f18a361b16.jpg\r\n'
p730
aS'http://ipsnoticias.net/fotos/Ni\xc3\xb1o_Bari.jpg\r\n'
p731
aS'http://farm5.static.flickr.com/4092/5058748125_afd16c7e97.jpg\r\n'
p732
aS'http://farm4.static.flickr.com/3223/2440191694_5005ff3fed.jpg\r\n'
p733
aS'http://farm1.static.flickr.com/150/428693322_db73bea090.jpg\r\n'
p734
aS'http://farm4.static.flickr.com/3064/3094757675_3105f548bc.jpg\r\n'
p735
aS'http://farm4.static.flickr.com/3265/4551791631_e8472ef385.jpg\r\n'
p736
aS'http://farm3.static.flickr.com/2537/3759112543_8c29deeba5.jpg\r\n'
p737
aS'http://farm3.static.flickr.com/2376/2117953451_9a31818de7.jpg\r\n'
p738
aS'http://farm4.static.flickr.com/3235/2707776705_66071530a3.jpg\r\n'
p739
aS'http://farm3.static.flickr.com/2688/4158669642_603c3e9095.jpg\r\n'
p740
aS'http://farm5.static.flickr.com/4031/4223345698_f89b6ccca6.jpg\r\n'
p741
aS'http://farm1.static.flickr.com/211/446429049_22e2bd38b7.jpg\r\n'
p742
aS'http://farm1.static.flickr.com/26/41772471_6ca3b037bf.jpg\r\n'
p743
aS'http://farm4.static.flickr.com/3576/3382298614_a4473f4572.jpg\r\n'
p744
aS'http://farm4.static.flickr.com/3436/3378696769_e06b78fe33.jpg\r\n'
p745
aS'http://farm4.static.flickr.com/3096/3172627826_0985e849db.jpg\r\n'
p746
aS'http://farm4.static.flickr.com/3254/3055123935_3938093e23.jpg\r\n'
p747
aS'http://farm1.static.flickr.com/43/106295171_f964e41131.jpg\r\n'
p748
aS'http://farm3.static.flickr.com/2413/2267395287_d0ea290c47.jpg\r\n'
p749
aS'http://farm3.static.flickr.com/2611/3947888458_2ce479483d.jpg\r\n'
p750
aS'http://farm3.static.flickr.com/2468/3573460712_9cf1905b62.jpg\r\n'
p751
aS'http://farm4.static.flickr.com/3045/2992674175_80d9b88f22.jpg\r\n'
p752
aS'http://farm4.static.flickr.com/3258/2878837156_c9289ecff7.jpg\r\n'
p753
aS'http://farm1.static.flickr.com/46/119257954_36949aa81b.jpg\r\n'
p754
aS'http://farm3.static.flickr.com/2512/4158678806_4cfc9906c8.jpg\r\n'
p755
aS'http://farm4.static.flickr.com/3234/2885261733_8d23365e37.jpg\r\n'
p756
aS'http://farm4.static.flickr.com/3151/2510057183_9f51953a44.jpg\r\n'
p757
aS'http://farm4.static.flickr.com/3309/3638807885_81075ac223.jpg\r\n'
p758
aS'http://farm4.static.flickr.com/3650/3496543490_7da4f137ac.jpg\r\n'
p759
aS'http://farm4.static.flickr.com/3262/3171773969_d861b5ac81.jpg\r\n'
p760
aS'http://farm3.static.flickr.com/2278/2243767684_543cfd1715.jpg\r\n'
p761
aS'http://farm1.static.flickr.com/124/345841536_474867a8b5.jpg\r\n'
p762
aS'http://farm3.static.flickr.com/2327/2446830334_9894250608.jpg\r\n'
p763
aS'http://farm3.static.flickr.com/2032/2059773395_ca02e370cf.jpg\r\n'
p764
aS'http://farm3.static.flickr.com/2743/4134626714_d94c1ebe96.jpg\r\n'
p765
aS'http://farm5.static.flickr.com/4057/4361794285_1f6683f1ff.jpg\r\n'
p766
aS'http://farm3.static.flickr.com/2505/4052509752_e3a5b86903.jpg\r\n'
p767
aS'http://farm4.static.flickr.com/3517/3227778479_fd960fe7c9.jpg\r\n'
p768
aS'http://farm4.static.flickr.com/3613/3375374280_64ff66e1a5.jpg\r\n'
p769
aS'http://farm1.static.flickr.com/88/228083479_122563f744.jpg\r\n'
p770
aS'http://farm4.static.flickr.com/3443/3715955040_9fa902c84f.jpg\r\n'
p771
aS'http://farm4.static.flickr.com/3563/3375368456_5f613b4a4a.jpg\r\n'
p772
aS'http://farm3.static.flickr.com/2395/2349145617_c77416a645.jpg\r\n'
p773
aS'http://farm1.static.flickr.com/130/357882486_1dad04a662.jpg\r\n'
p774
aS'http://farm2.static.flickr.com/1150/3171791747_9082c6f309.jpg\r\n'
p775
aS'http://farm5.static.flickr.com/4125/5085278526_3a17f21a86.jpg\r\n'
p776
aS'http://farm1.static.flickr.com/42/83388457_aeeafa9071.jpg\r\n'
p777
aS'http://farm5.static.flickr.com/4021/4370354649_9ec4ed70cb.jpg\r\n'
p778
aS'http://farm3.static.flickr.com/2724/4473118368_9c8030980c.jpg\r\n'
p779
aS'http://farm4.static.flickr.com/3535/3854967030_24d8d8c29d.jpg\r\n'
p780
aS'http://farm1.static.flickr.com/21/94785348_1bf8977d24.jpg\r\n'
p781
aS'http://farm3.static.flickr.com/2057/2203145029_a31b5c1693.jpg\r\n'
p782
aS'http://farm4.static.flickr.com/3063/3037453200_ffcb6cfd68.jpg\r\n'
p783
aS'http://farm1.static.flickr.com/52/143491085_5f7982246f.jpg\r\n'
p784
aS'http://farm2.static.flickr.com/1430/1000753901_703ddb7364.jpg\r\n'
p785
aS'http://farm4.static.flickr.com/3646/3417168354_579004831a.jpg\r\n'
p786
aS'http://farm3.static.flickr.com/2274/2062059353_57aa3d5caa.jpg\r\n'
p787
aS'http://farm4.static.flickr.com/3003/2747329075_809c5b24dc.jpg\r\n'
p788
aS'http://farm5.static.flickr.com/4059/4304125024_89693743dc.jpg\r\n'
p789
aS'http://farm3.static.flickr.com/2455/3854978686_d7b1bb11b6.jpg\r\n'
p790
aS'http://farm1.static.flickr.com/113/283381340_0b137348dc.jpg\r\n'
p791
aS'http://farm4.static.flickr.com/3393/3604617710_83aa6580ac.jpg\r\n'
p792
aS'http://farm3.static.flickr.com/2403/2300174775_8b62767475.jpg\r\n'
p793
aS'http://farm1.static.flickr.com/45/121607740_304583b605.jpg\r\n'
p794
aS'http://farm1.static.flickr.com/169/416108495_42f5a84c0c.jpg\r\n'
p795
aS'http://farm3.static.flickr.com/2244/2355731311_47b748cda8.jpg\r\n'
p796
aS'http://farm4.static.flickr.com/3081/3236780085_9da8678cb1.jpg\r\n'
p797
aS'http://farm2.static.flickr.com/1151/1313499506_841155143d.jpg\r\n'
p798
aS'http://farm1.static.flickr.com/36/77969159_082a6032b9.jpg\r\n'
p799
aS'http://218.64.245.18:8080/1/2008-6-1/20080601140511516872.jpg\r\n'
p800
aS'http://farm1.static.flickr.com/45/144555392_687a6268d0.jpg\r\n'
p801
aS'http://farm3.static.flickr.com/2664/4131058321_ee56afe356.jpg\r\n'
p802
aS'http://farm4.static.flickr.com/3384/3278706644_3cd47a01f0.jpg\r\n'
p803
aS'http://farm1.static.flickr.com/105/296725193_e8626d9050.jpg\r\n'
p804
aS'http://farm1.static.flickr.com/125/349265101_c6af3158d2.jpg\r\n'
p805
aS'http://farm4.static.flickr.com/3134/2378486885_5f0b920e3d.jpg\r\n'
p806
aS'http://farm4.static.flickr.com/3623/3596571804_a56ce549cc.jpg\r\n'
p807
aS'http://farm2.static.flickr.com/1276/1353599261_1f8f998bc6.jpg\r\n'
p808
aS'http://farm4.static.flickr.com/3574/3445004804_d4b348fe74.jpg\r\n'
p809
aS'http://farm4.static.flickr.com/3343/3547938210_67264b9814.jpg\r\n'
p810
aS'http://farm3.static.flickr.com/2366/2449818830_10f033fef7.jpg\r\n'
p811
aS'http://farm3.static.flickr.com/2367/2223515817_f035fc9b99.jpg\r\n'
p812
aS'http://farm3.static.flickr.com/2152/2083812071_45244a47f3.jpg\r\n'
p813
aS'http://farm4.static.flickr.com/3379/3293685768_27c773029d.jpg\r\n'
p814
aS'http://farm3.static.flickr.com/2310/2410831363_95a8cf10af.jpg\r\n'
p815
aS'http://farm4.static.flickr.com/3252/3035535296_aeeed531d4.jpg\r\n'
p816
aS'http://farm3.static.flickr.com/2366/2119406973_c85f5586cb.jpg\r\n'
p817
aS'http://farm5.static.flickr.com/4070/4579832201_830c6232a7.jpg\r\n'
p818
aS'http://farm4.static.flickr.com/3365/3237716620_efdc89ce3c.jpg\r\n'
p819
aS'http://farm4.static.flickr.com/3492/3918971030_b911ecc2d7.jpg\r\n'
p820
aS'http://farm4.static.flickr.com/3061/2349271364_5f36a28fb6.jpg\r\n'
p821
aS'http://farm4.static.flickr.com/3646/3299695148_b6e09d2497.jpg\r\n'
p822
aS'http://farm4.static.flickr.com/3352/3199622277_aa5f4d0dfe.jpg\r\n'
p823
aS'http://farm5.static.flickr.com/4143/4853777511_4ae5d56b31.jpg\r\n'
p824
aS'http://farm4.static.flickr.com/3259/3163342564_4136ee30c0.jpg\r\n'
p825
aS'http://farm1.static.flickr.com/93/262156180_4ca167496c.jpg\r\n'
p826
aS'http://farm4.static.flickr.com/3478/3947177226_eec8835452.jpg\r\n'
p827
aS'http://farm5.static.flickr.com/4023/4689083966_f8448e7b66.jpg\r\n'
p828
aS'http://farm3.static.flickr.com/2173/1650992452_2a6000afcd.jpg\r\n'
p829
aS'http://farm3.static.flickr.com/2131/2188989785_14d6b3dd04.jpg\r\n'
p830
aS'http://farm5.static.flickr.com/4015/4568273199_6b7e3dda04.jpg\r\n'
p831
aS'http://farm4.static.flickr.com/3526/3184073796_97ee901a5a.jpg\r\n'
p832
aS'http://farm1.static.flickr.com/193/456938433_4a615ba7a4.jpg\r\n'
p833
aS'http://farm3.static.flickr.com/2368/2443865572_7cc9d14426.jpg\r\n'
p834
aS'http://farm1.static.flickr.com/200/509088586_d4ff7b4c80.jpg\r\n'
p835
aS'http://farm3.static.flickr.com/2003/1504345411_043ee7f63d.jpg\r\n'
p836
aS'http://farm5.static.flickr.com/4140/4854361164_33d1be4550.jpg\r\n'
p837
aS'http://farm4.static.flickr.com/3231/2992689637_9d9e85ccd5.jpg\r\n'
p838
aS'http://farm5.static.flickr.com/4127/4994986289_f48db57586.jpg\r\n'
p839
aS'http://farm1.static.flickr.com/60/180508385_6aaf96c7e3.jpg\r\n'
p840
aS'http://farm4.static.flickr.com/3084/3139488405_bd5a4452b4.jpg\r\n'
p841
aS'http://farm1.static.flickr.com/86/249692423_20b1a09a64.jpg\r\n'
p842
aS'http://farm4.static.flickr.com/3326/3534077558_c0bf59069d.jpg\r\n'
p843
aS'http://farm1.static.flickr.com/76/196855679_afcd9fa360.jpg\r\n'
p844
aS'http://farm4.static.flickr.com/3466/3965448983_dfe3fbdc58.jpg\r\n'
p845
aS'http://farm2.static.flickr.com/1199/1354478924_a4679cfb5c.jpg\r\n'
p846
aS'http://farm4.static.flickr.com/3524/3178981541_e6e77efef5.jpg\r\n'
p847
aS'http://farm2.static.flickr.com/1306/885046550_67e40f6d76.jpg\r\n'
p848
aS'http://farm3.static.flickr.com/2074/2267355496_b29c12b86d.jpg\r\n'
p849
aS'http://farm3.static.flickr.com/2093/2306818142_1752ae9e12.jpg\r\n'
p850
aS'http://farm4.static.flickr.com/3222/3047675548_d19f9e49d8.jpg\r\n'
p851
aS'http://farm3.static.flickr.com/2767/4192858009_7bb21923f1.jpg\r\n'
p852
aS'http://farm4.static.flickr.com/3059/3032605981_67411d3966.jpg\r\n'
p853
aS'http://farm3.static.flickr.com/2610/4159102555_8a516c32d4.jpg\r\n'
p854
aS'http://farm3.static.flickr.com/2372/2170556238_3357ebca5e.jpg\r\n'
p855
aS'http://farm5.static.flickr.com/4054/4357553712_3b07355e2e.jpg\r\n'
p856
aS'http://farm2.static.flickr.com/1154/817485039_463bbb9c46.jpg\r\n'
p857
aS'http://farm3.static.flickr.com/2628/4158674794_6b5607018a.jpg\r\n'
p858
aS'http://farm5.static.flickr.com/4078/4856503305_f68ffdbf9f.jpg\r\n'
p859
aS'http://farm4.static.flickr.com/3209/2319177416_4d69153508.jpg\r\n'
p860
aS'http://farm3.static.flickr.com/2674/4212368497_bc4636440f.jpg\r\n'
p861
aS'http://farm3.static.flickr.com/2196/3535507283_37e1163291.jpg\r\n'
p862
aS'http://farm1.static.flickr.com/109/292377688_546b686142.jpg\r\n'
p863
aS'http://farm4.static.flickr.com/3353/3511665724_7bcd63ef84.jpg\r\n'
p864
aS'http://farm3.static.flickr.com/2633/4218801710_cae19c4c86.jpg\r\n'
p865
aS'http://farm1.static.flickr.com/10/17236206_1c3c4e3518.jpg\r\n'
p866
aS'http://farm5.static.flickr.com/4084/4978327360_6c5acd3315.jpg\r\n'
p867
aS'http://farm5.static.flickr.com/4013/4212368353_7c41c62252.jpg\r\n'
p868
aS'http://farm5.static.flickr.com/4019/4707126848_15e48b4375.jpg\r\n'
p869
aS'http://farm3.static.flickr.com/2235/2150820637_1f636bca2f.jpg\r\n'
p870
aS'http://farm3.static.flickr.com/2006/2267284570_ff6e7d64d5.jpg\r\n'
p871
aS'http://farm1.static.flickr.com/31/67857313_7d8dcf4e0e.jpg\r\n'
p872
aS'http://farm4.static.flickr.com/3200/2317975979_848ef1e41a.jpg\r\n'
p873
aS'http://farm1.static.flickr.com/129/345353269_1c933c1668.jpg\r\n'
p874
aS'http://farm3.static.flickr.com/2188/2084767151_3710b8273e.jpg\r\n'
p875
aS'http://farm3.static.flickr.com/2646/4079053595_37a9c7440f.jpg\r\n'
p876
aS'http://farm1.static.flickr.com/217/504923882_2271314e97.jpg\r\n'
p877
aS'http://farm3.static.flickr.com/2791/4158672966_c974077d75.jpg\r\n'
p878
aS'http://farm4.static.flickr.com/3378/3637994946_4f26cdac78.jpg\r\n'
p879
aS'http://farm3.static.flickr.com/2226/2376128913_22d8f62459.jpg\r\n'
p880
aS'http://farm2.static.flickr.com/1181/1351393131_98d12988d1.jpg\r\n'
p881
aS'http://farm4.static.flickr.com/3042/2706329608_2f262408ec.jpg\r\n'
p882
aS'http://farm2.static.flickr.com/1041/1059881797_ea7b5797a0.jpg\r\n'
p883
aS'http://farm4.static.flickr.com/3151/3090992202_b87f3eb479.jpg\r\n'
p884
aS'http://farm4.static.flickr.com/3319/4628453563_f270d0ff0b.jpg\r\n'
p885
aS'http://farm5.static.flickr.com/4149/5037552861_f689774005.jpg\r\n'
p886
aS'http://farm3.static.flickr.com/2024/2536369016_277562b6ff.jpg\r\n'
p887
aS'http://farm3.static.flickr.com/2462/3581664651_afcd528a24.jpg\r\n'
p888
aS'http://farm1.static.flickr.com/188/471190489_6ddb25ed9f.jpg\r\n'
p889
aS'http://farm4.static.flickr.com/3588/3372247946_160ff161cc.jpg\r\n'
p890
aS'http://farm1.static.flickr.com/230/512500594_23df8d5d3d.jpg\r\n'
p891
aS'http://farm1.static.flickr.com/207/512543393_236dba6c02.jpg\r\n'
p892
aS'http://farm3.static.flickr.com/2353/2112999176_f408f0d204.jpg\r\n'
p893
aS'http://farm5.static.flickr.com/4010/4646170478_080a468521.jpg\r\n'
p894
aS'http://farm2.static.flickr.com/1124/728463473_e47b10c4ab.jpg\r\n'
p895
aS'http://farm3.static.flickr.com/2566/3662725041_3df1742c02.jpg\r\n'
p896
aS'http://farm4.static.flickr.com/3239/3146768615_3845cb963b.jpg\r\n'
p897
aS'http://farm3.static.flickr.com/2687/4223319022_fb529521d4.jpg\r\n'
p898
aS'http://farm2.static.flickr.com/1173/1323873640_2decc023f0.jpg\r\n'
p899
aS'http://farm3.static.flickr.com/2649/3954245043_e3ae0e04d6.jpg\r\n'
p900
aS'http://farm4.static.flickr.com/3247/3129112116_2b06902700.jpg\r\n'
p901
aS'http://farm3.static.flickr.com/2399/2346382562_68b6312b63.jpg\r\n'
p902
aS'http://farm4.static.flickr.com/3030/2384087664_f7926ca2f5.jpg\r\n'
p903
aS'http://farm1.static.flickr.com/35/104741160_78ea88bcd9.jpg\r\n'
p904
aS'http://farm4.static.flickr.com/3255/3120067636_6127eeac39.jpg\r\n'
p905
aS'http://farm3.static.flickr.com/2134/2513603384_bc51fc33cd.jpg\r\n'
p906
aS'http://farm4.static.flickr.com/3647/3447052722_4255de00be.jpg\r\n'
p907
aS'http://farm4.static.flickr.com/3027/2523756418_6d208d5062.jpg\r\n'
p908
aS'http://farm3.static.flickr.com/2325/2497549231_9c3bfee0be.jpg\r\n'
p909
aS'http://farm1.static.flickr.com/32/54383860_ed8db23066.jpg\r\n'
p910
aS'http://farm4.static.flickr.com/3385/3331347018_7806b4e460.jpg\r\n'
p911
aS'http://farm3.static.flickr.com/2250/2250513168_b8df142ea7.jpg\r\n'
p912
aS'http://www.designboom.com/contest/files/child.jpg\r\n'
p913
aS'http://farm4.static.flickr.com/3659/3459088915_7716e3e277.jpg\r\n'
p914
aS'http://farm2.static.flickr.com/1341/556564090_27ff43de2d.jpg\r\n'
p915
aS'http://farm3.static.flickr.com/2324/2137267173_2ef30846f4.jpg\r\n'
p916
aS'http://farm4.static.flickr.com/3199/4566022514_cbb93ff93f.jpg\r\n'
p917
aS'http://farm5.static.flickr.com/4144/5037536917_88062e7a6d.jpg\r\n'
p918
aS'http://farm3.static.flickr.com/2292/2137498880_55aea5ef25.jpg\r\n'
p919
aS'http://farm4.static.flickr.com/3113/2385957440_d03a696490.jpg\r\n'
p920
aS'http://farm1.static.flickr.com/118/283529499_1a22493d5c.jpg\r\n'
p921
aS'http://farm4.static.flickr.com/3452/3279230933_0b247686af.jpg\r\n'
p922
aS'http://farm3.static.flickr.com/2508/4097007775_54a8800538.jpg\r\n'
p923
aS'http://farm4.static.flickr.com/3597/3505705339_6cda2e5966.jpg\r\n'
p924
aS'http://farm2.static.flickr.com/1193/729159470_491e5b4505.jpg\r\n'
p925
aS'http://farm4.static.flickr.com/3112/2922931797_9586076607.jpg\r\n'
p926
aS'http://farm3.static.flickr.com/2331/2070698399_6628ffadbb.jpg\r\n'
p927
aS'http://farm3.static.flickr.com/2508/3935967069_ff2b820fd8.jpg\r\n'
p928
aS'http://farm5.static.flickr.com/4065/4478536560_170b8a1faf.jpg\r\n'
p929
aS'http://farm3.static.flickr.com/2350/2343204127_5d3843a0df.jpg\r\n'
p930
aS'http://farm4.static.flickr.com/3165/3034757482_64e7cbfeb6.jpg\r\n'
p931
aS'http://farm3.static.flickr.com/2075/2497549057_a2ceeed024.jpg\r\n'
p932
aS'http://farm1.static.flickr.com/162/339366424_384c9a407b.jpg\r\n'
p933
aS'http://farm3.static.flickr.com/2320/2301018900_3a30421c35.jpg\r\n'
p934
aS'http://farm1.static.flickr.com/49/106686582_bb5e62006c.jpg\r\n'
p935
aS'http://farm3.static.flickr.com/2107/2258175048_004445f97a.jpg\r\n'
p936
aS'http://farm1.static.flickr.com/191/501852423_c4a4207afe.jpg\r\n'
p937
aS'http://farm2.static.flickr.com/1317/1305768329_b5fbf56721.jpg\r\n'
p938
aS'http://farm1.static.flickr.com/48/139443606_726c1791b2.jpg\r\n'
p939
aS'http://farm2.static.flickr.com/1140/757157470_eeebbf9e28.jpg\r\n'
p940
aS'http://farm1.static.flickr.com/227/502481999_d8bec024df.jpg\r\n'
p941
aS'http://farm4.static.flickr.com/3211/3017846858_c840f5a8ec.jpg\r\n'
p942
aS'http://farm4.static.flickr.com/3385/3562001520_92e21f8d05.jpg\r\n'
p943
aS'http://farm4.static.flickr.com/3269/2907939204_3b18bdb654.jpg\r\n'
p944
aS'http://farm1.static.flickr.com/85/244082784_20db7dc381.jpg\r\n'
p945
aS'http://farm1.static.flickr.com/117/250347625_3d42f9c4c2.jpg\r\n'
p946
aS'http://farm1.static.flickr.com/54/186302881_0f0a706037.jpg\r\n'
p947
aS'http://farm1.static.flickr.com/123/333285533_73fcd06a91.jpg\r\n'
p948
aS'http://farm5.static.flickr.com/4078/4879661055_885bacc573.jpg\r\n'
p949
aS'http://farm3.static.flickr.com/2541/3698736181_594a10aede.jpg\r\n'
p950
aS'http://farm3.static.flickr.com/2292/2040408464_017f1420e2.jpg\r\n'
p951
aS'http://farm5.static.flickr.com/4070/4707138744_e47a56e0c7.jpg\r\n'
p952
aS'http://farm1.static.flickr.com/46/144571578_897ab0f461.jpg\r\n'
p953
aS'http://farm1.static.flickr.com/87/244046435_b9cd6f399f.jpg\r\n'
p954
aS'http://farm4.static.flickr.com/3251/3094951808_dc0a5dacb7.jpg\r\n'
p955
aS'http://farm3.static.flickr.com/2759/4079808350_c0d88425bc.jpg\r\n'
p956
aS'http://farm3.static.flickr.com/2262/2070641829_6294cf1ded.jpg\r\n'
p957
aS'http://farm3.static.flickr.com/2171/1650188347_54e415d0c5.jpg\r\n'
p958
aS'http://farm1.static.flickr.com/126/363864920_a3677f6770.jpg\r\n'
p959
aS'http://farm1.static.flickr.com/113/285573973_6eb082bea0.jpg\r\n'
p960
aS'http://farm4.static.flickr.com/3580/3817634969_31f7ac3b0d.jpg\r\n'
p961
aS'http://farm1.static.flickr.com/78/224603587_35ff9e1a07.jpg\r\n'
p962
aS'http://farm4.static.flickr.com/3079/2640474138_745f7c20a4.jpg\r\n'
p963
aS'http://farm4.static.flickr.com/3131/3238055577_bf2f323498.jpg\r\n'
p964
aS'http://farm3.static.flickr.com/2267/2456585741_997e59853c.jpg\r\n'
p965
aS'http://farm3.static.flickr.com/2757/4131058173_61e0cfec90.jpg\r\n'
p966
aS'http://farm3.static.flickr.com/2220/2392642555_56d6e33e8c.jpg\r\n'
p967
aS'http://farm5.static.flickr.com/4048/4193619134_2343dd9dc2.jpg\r\n'
p968
aS'http://farm3.static.flickr.com/2671/3681165734_d019a24ec9.jpg\r\n'
p969
aS'http://farm4.static.flickr.com/3221/3149974302_3223cb5bea.jpg\r\n'
p970
aS'http://farm3.static.flickr.com/2136/1837737498_2bd9794150.jpg\r\n'
p971
aS'http://farm4.static.flickr.com/3487/3236852443_176776ff31.jpg\r\n'
p972
aS'http://farm4.static.flickr.com/3141/4566561588_1de392dbfa.jpg\r\n'
p973
aS'http://farm5.static.flickr.com/4093/4893400534_a59de016b9.jpg\r\n'
p974
aS'http://farm3.static.flickr.com/2411/2207965979_3be1e2ff14.jpg\r\n'
p975
aS'http://farm3.static.flickr.com/2265/2300224387_0f29916403.jpg\r\n'
p976
aS'http://farm1.static.flickr.com/31/41794738_7f43b52d21.jpg\r\n'
p977
aS'http://farm5.static.flickr.com/4149/4847933098_c41648b677.jpg\r\n'
p978
aS'http://farm3.static.flickr.com/2709/4351626353_04277a5e7e.jpg\r\n'
p979
aS'http://farm4.static.flickr.com/3157/2709629917_022592a04b.jpg\r\n'
p980
aS'http://farm1.static.flickr.com/49/130873204_f496d9a85d.jpg\r\n'
p981
aS'http://farm3.static.flickr.com/2588/3933742590_140fe070fe.jpg\r\n'
p982
aS'http://farm4.static.flickr.com/3284/2297661060_abc19a0e9d.jpg\r\n'
p983
aS'http://farm3.static.flickr.com/2063/2249715049_ab0efc5e29.jpg\r\n'
p984
aS'http://farm5.static.flickr.com/4039/4158731496_d5e9056ee5.jpg\r\n'
p985
aS'http://farm4.static.flickr.com/3043/3058101359_b8e196dfee.jpg\r\n'
p986
aS'http://farm3.static.flickr.com/2129/2260742306_83408745fb.jpg\r\n'
p987
aS'http://farm2.static.flickr.com/1427/1375771302_9d6ef7b553.jpg\r\n'
p988
aS'http://farm3.static.flickr.com/2144/2198827799_e02466a20f.jpg\r\n'
p989
aS'http://farm3.static.flickr.com/2446/3951190670_1e46aceb8d.jpg\r\n'
p990
aS'http://farm4.static.flickr.com/3251/2621675902_7fb5657abb.jpg\r\n'
p991
aS'http://farm5.static.flickr.com/4143/4930200384_517d09ec00.jpg\r\n'
p992
aS'http://farm4.static.flickr.com/3274/2377372729_48692b7579.jpg\r\n'
p993
aS'http://farm1.static.flickr.com/24/43828846_667772a135.jpg\r\n'
p994
aS'http://farm1.static.flickr.com/186/407493897_cbce6378fb.jpg\r\n'
p995
aS'http://farm3.static.flickr.com/2770/4474466480_8a3d099e2a.jpg\r\n'
p996
aS'http://farm3.static.flickr.com/2653/3947186616_0c1f7e96d5.jpg\r\n'
p997
aS'http://farm3.static.flickr.com/2724/4162748410_2654798116.jpg\r\n'
p998
aS'http://farm5.static.flickr.com/4059/4707143840_853a656f1c.jpg\r\n'
p999
aS'http://farm4.static.flickr.com/3589/3371429583_b45e8af958.jpg\r\n'
p1000
aS'http://farm4.static.flickr.com/3558/3612316109_7c662e148c.jpg\r\n'
p1001
aS'http://farm5.static.flickr.com/4016/4704845809_caf8482e07.jpg\r\n'
p1002
aS'http://farm5.static.flickr.com/4050/4474474594_eb796e6a42.jpg\r\n'
p1003
aS'http://farm3.static.flickr.com/2415/1504338717_4ce87cba82.jpg\r\n'
p1004
aS'http://farm1.static.flickr.com/137/342482559_e859dd31a9.jpg\r\n'
p1005
aS'http://farm1.static.flickr.com/172/470766499_f15d7a1165.jpg\r\n'
p1006
aS'http://farm3.static.flickr.com/2699/4158646194_43c754d6c9.jpg\r\n'
p1007
aS'http://farm1.static.flickr.com/61/199566043_56b1362dfb.jpg\r\n'
p1008
aS'http://farm4.static.flickr.com/3198/3141424119_1101e2ba70.jpg\r\n'
p1009
aS'http://farm1.static.flickr.com/156/406975293_2236ad5154.jpg\r\n'
p1010
aS'http://farm1.static.flickr.com/29/117550734_b6c25f4d7f.jpg\r\n'
p1011
aS'http://farm4.static.flickr.com/3526/3175157045_d44fe382b6.jpg\r\n'
p1012
aS'http://farm3.static.flickr.com/2677/4384658460_b141921579.jpg\r\n'
p1013
aS'http://farm3.static.flickr.com/2408/2508336456_59f595b739.jpg\r\n'
p1014
aS'http://farm2.static.flickr.com/1220/1309938547_b07e4467a5.jpg\r\n'
p1015
aS'http://farm3.static.flickr.com/2217/2155984756_8e9262ab2c.jpg\r\n'
p1016
aS'http://farm4.static.flickr.com/3082/3212586045_2432c681bf.jpg\r\n'
p1017
aS'http://farm2.static.flickr.com/1010/534548418_9f2802a2f1.jpg\r\n'
p1018
aS'http://farm3.static.flickr.com/2793/4076125941_bc47c016aa.jpg\r\n'
p1019
aS'http://farm5.static.flickr.com/4116/4860170315_f9029451c6.jpg\r\n'
p1020
aS'http://farm3.static.flickr.com/2761/4079048289_17ca59077e.jpg\r\n'
p1021
aS'http://farm4.static.flickr.com/3114/2925614623_77d9d5fa27.jpg\r\n'
p1022
aS'http://farm4.static.flickr.com/3181/2968338260_7eb3241910.jpg\r\n'
p1023
aS'http://farm3.static.flickr.com/2324/1776737069_7e4f76d744.jpg\r\n'
p1024
aS'http://i.ehow.com/images/GlobalPhoto/Articles/2196488/baptized-main_Full.jpg\r\n'
p1025
aS'http://farm4.static.flickr.com/3195/2893923578_d1819507f6.jpg\r\n'
p1026
aS'http://farm1.static.flickr.com/184/392872218_8683ed59f8.jpg\r\n'
p1027
aS'http://farm5.static.flickr.com/4018/4246910483_112f7410d6.jpg\r\n'
p1028
aS'http://farm4.static.flickr.com/3115/2290900168_0ceda853df.jpg\r\n'
p1029
aS'http://farm4.static.flickr.com/3179/2940028962_73b2b0e0d0.jpg\r\n'
p1030
aS'http://farm1.static.flickr.com/203/502455252_2947115009.jpg\r\n'
p1031
aS'http://farm1.static.flickr.com/231/512543919_6838aaef97.jpg\r\n'
p1032
aS'http://farm4.static.flickr.com/3222/2917751880_eece4f9aa5.jpg\r\n'
p1033
aS'http://farm4.static.flickr.com/3471/4642598740_3da29b7878.jpg\r\n'
p1034
aS'http://farm3.static.flickr.com/2180/2300239671_0aa101c509.jpg\r\n'
p1035
aS'http://farm3.static.flickr.com/2406/1620158300_a64f47523d.jpg\r\n'
p1036
aS'http://farm3.static.flickr.com/2670/3934519330_27ac667701.jpg\r\n'
p1037
aS'http://farm4.static.flickr.com/3289/2984650074_393e5bbccc.jpg\r\n'
p1038
aS'http://farm1.static.flickr.com/62/182538172_7ca8b64414.jpg\r\n'
p1039
aS'http://farm4.static.flickr.com/3329/3333307522_607bd74fdb.jpg\r\n'
p1040
aS'http://farm4.static.flickr.com/3124/3232437978_72293d08dc.jpg\r\n'
p1041
aS'http://farm2.static.flickr.com/1268/1266024387_d1390087c7.jpg\r\n'
p1042
aS'http://farm1.static.flickr.com/20/73401952_ca0d4b4d9b.jpg\r\n'
p1043
aS'http://farm4.static.flickr.com/3003/2412169720_b3b7092617.jpg\r\n'
p1044
aS'http://farm4.static.flickr.com/3068/2781022278_fda10411e6.jpg\r\n'
p1045
aS'http://www.bbc.co.uk/tv/comingup/mysupermodelbaby/images/my_supermodel_baby_1.jpg\r\n'
p1046
aS'http://farm1.static.flickr.com/120/263579370_d065762d32.jpg\r\n'
p1047
aS'http://farm2.static.flickr.com/1230/1244810303_9250a5b478.jpg\r\n'
p1048
aS'http://farm4.static.flickr.com/3104/2479347420_185a966e70.jpg\r\n'
p1049
aS'http://farm3.static.flickr.com/2458/3854164535_e70db9133d.jpg\r\n'
p1050
aS'http://farm1.static.flickr.com/48/119256517_01667449ec.jpg\r\n'
p1051
aS'http://farm1.static.flickr.com/65/181871232_73e75826ca.jpg\r\n'
p1052
aS'http://farm1.static.flickr.com/109/272932772_6fa90eec8d.jpg\r\n'
p1053
aS'http://farm4.static.flickr.com/3087/3131054814_75ced94c18.jpg\r\n'
p1054
aS'http://farm4.static.flickr.com/3195/2842175845_2fbec91570.jpg\r\n'
p1055
aS'http://farm1.static.flickr.com/38/80693580_75371066d9.jpg\r\n'
p1056
aS'http://farm1.static.flickr.com/21/28588755_fc3d052e7d.jpg\r\n'
p1057
aS'http://farm1.static.flickr.com/84/265923695_284a94c03c.jpg\r\n'
p1058
aS'http://farm4.static.flickr.com/3180/2331402806_1c4f9218a3.jpg\r\n'
p1059
aS'http://farm4.static.flickr.com/3626/3371425187_0594edc609.jpg\r\n'
p1060
aS'http://farm1.static.flickr.com/140/355926070_53ca68dd40.jpg\r\n'
p1061
aS'http://farm3.static.flickr.com/2366/1810929932_e429777e66.jpg\r\n'
p1062
aS'http://farm1.static.flickr.com/7/10952506_77d8ec508b.jpg\r\n'
p1063
aS'http://farm4.static.flickr.com/3166/2835382621_ac88d8b6d3.jpg\r\n'
p1064
aS'http://farm3.static.flickr.com/2545/4079057595_e3d88972b0.jpg\r\n'
p1065
aS'http://farm4.static.flickr.com/3662/3411754255_f2a5af9499.jpg\r\n'
p1066
aS'http://farm4.static.flickr.com/3460/3404969694_2cd26e0a86.jpg\r\n'
p1067
aS'http://farm3.static.flickr.com/2413/2179876798_a33e0d350a.jpg\r\n'
p1068
aS'http://farm1.static.flickr.com/251/550984627_cb00ccf6db.jpg\r\n'
p1069
aS'http://farm3.static.flickr.com/2752/4158645672_1b77dd8a1a.jpg\r\n'
p1070
aS'http://farm1.static.flickr.com/130/342467692_bf6959ee3a.jpg\r\n'
p1071
aS'http://farm4.static.flickr.com/3431/4569321635_5c60dcacc1.jpg\r\n'
p1072
aS'http://farm1.static.flickr.com/194/457319440_84fa46f502.jpg\r\n'
p1073
aS'http://farm3.static.flickr.com/2395/1891894911_2a76b127d7.jpg\r\n'
p1074
aS'http://farm2.static.flickr.com/1057/1348207276_7283580756.jpg\r\n'
p1075
aS'http://farm2.static.flickr.com/1364/1443395420_f371178c2c.jpg\r\n'
p1076
aS'http://farm3.static.flickr.com/2711/4222571849_df0ebc6447.jpg\r\n'
p1077
aS'http://farm5.static.flickr.com/4140/4749167137_9cfa19e2cb.jpg\r\n'
p1078
aS'http://farm4.static.flickr.com/3146/2868549428_48f255f50e.jpg\r\n'
p1079
aS'http://farm4.static.flickr.com/3462/3232469944_10494d7e5f.jpg\r\n'
p1080
aS'http://farm4.static.flickr.com/3445/3351881615_2090180b60.jpg\r\n'
p1081
aS'http://farm3.static.flickr.com/2580/3763291005_9526fac389.jpg\r\n'
p1082
aS'http://farm4.static.flickr.com/3081/2312529439_fc7b85231a.jpg\r\n'
p1083
aS'http://farm4.static.flickr.com/3276/2312614858_0e81299b27.jpg\r\n'
p1084
aS'http://farm3.static.flickr.com/2594/4161901777_446ee29cde.jpg\r\n'
p1085
aS'http://farm3.static.flickr.com/2591/3848565838_f279f623cc.jpg\r\n'
p1086
aS'http://farm3.static.flickr.com/2321/2490288770_552d38398f.jpg\r\n'
p1087
aS'http://farm3.static.flickr.com/2682/4079803732_7949376fdd.jpg\r\n'
p1088
aS'http://farm2.static.flickr.com/1068/891068576_03aff54b56.jpg\r\n'
p1089
aS'http://farm1.static.flickr.com/62/203909292_8fc4b26134.jpg\r\n'
p1090
aS'http://farm5.static.flickr.com/4048/4706498967_084a6834e8.jpg\r\n'
p1091
aS'http://farm4.static.flickr.com/3186/2338156661_fea05d2d3d.jpg\r\n'
p1092
aS'http://farm3.static.flickr.com/2481/3909064138_9b465b93a0.jpg\r\n'
p1093
aS'http://farm3.static.flickr.com/2068/1505201800_12a65e2a38.jpg\r\n'
p1094
aS'http://farm1.static.flickr.com/204/512663036_88a78fc2a6.jpg\r\n'
p1095
aS'http://farm4.static.flickr.com/3366/3279436416_39b993a5d1.jpg\r\n'
p1096
aS'http://farm4.static.flickr.com/3621/3478723753_c2a4e9ecf6.jpg\r\n'
p1097
aS'http://farm2.static.flickr.com/1030/1249149795_51182d74d3.jpg\r\n'
p1098
aS'http://farm1.static.flickr.com/8/10959682_0c733863ba.jpg\r\n'
p1099
aS'http://farm1.static.flickr.com/209/512545559_2257356688.jpg\r\n'
p1100
aS'http://farm3.static.flickr.com/2057/1570969454_f78a5ff6c2.jpg\r\n'
p1101
aS'http://farm1.static.flickr.com/46/120908453_3b3bd5c846.jpg\r\n'
p1102
aS'http://farm3.static.flickr.com/2288/2348811382_0f820abc51.jpg\r\n'
p1103
aS'http://farm1.static.flickr.com/29/56252405_9baf078dc0.jpg\r\n'
p1104
aS'http://farm3.static.flickr.com/2520/3688881412_5b48e9c8c9.jpg\r\n'
p1105
aS'http://farm4.static.flickr.com/3323/3586207682_55c5b0f219.jpg\r\n'
p1106
aS'http://farm1.static.flickr.com/115/288320091_0c3e476f9b.jpg\r\n'
p1107
aS'http://farm4.static.flickr.com/3183/2733370734_6bebb76fa8.jpg\r\n'
p1108
aS'http://farm3.static.flickr.com/2043/2137405392_fb0f0d774e.jpg\r\n'
p1109
aS'http://farm3.static.flickr.com/2403/1888117271_27b192d568.jpg\r\n'
p1110
aS'http://farm4.static.flickr.com/3618/3372248228_914cdfdb3f.jpg\r\n'
p1111
aS'http://farm5.static.flickr.com/4142/4929612067_7589428f58.jpg\r\n'
p1112
aS'http://farm4.static.flickr.com/3416/3180052221_9bd8bca956.jpg\r\n'
p1113
aS'http://farm1.static.flickr.com/62/202648554_aa2aa46852.jpg\r\n'
p1114
aS'http://farm2.static.flickr.com/1382/707478442_bbc230e5ea.jpg\r\n'
p1115
aS'http://farm5.static.flickr.com/4067/4351631325_f636ec92f4.jpg\r\n'
p1116
aS'http://farm1.static.flickr.com/121/260138766_40ed8988cb.jpg\r\n'
p1117
aS'http://farm3.static.flickr.com/2682/4274371968_0c494dae31.jpg\r\n'
p1118
aS'http://farm1.static.flickr.com/184/471170660_0240948a9f.jpg\r\n'
p1119
aS'http://farm4.static.flickr.com/3442/3349972303_918e44f4ed.jpg\r\n'
p1120
aS'http://farm3.static.flickr.com/2214/2149487371_bbd5ebe3bd.jpg\r\n'
p1121
aS'http://farm4.static.flickr.com/3170/3094757681_5b7f3e2e6c.jpg\r\n'
p1122
aS'http://farm1.static.flickr.com/205/502450760_807551e747.jpg\r\n'
p1123
aS'http://farm3.static.flickr.com/2141/2300964070_90e118b3d8.jpg\r\n'
p1124
aS'http://farm1.static.flickr.com/29/47246527_fee098aa88.jpg\r\n'
p1125
aS'http://farm1.static.flickr.com/47/145099918_6f3cd334b3.jpg\r\n'
p1126
aS'http://farm1.static.flickr.com/33/67228521_c33709101d.jpg\r\n'
p1127
aS'http://farm4.static.flickr.com/3340/3237658340_5ee504bc52.jpg\r\n'
p1128
aS'http://farm5.static.flickr.com/4074/4888012924_1d8797d8b2.jpg\r\n'
p1129
aS'http://farm4.static.flickr.com/3647/3447056632_50969464b6.jpg\r\n'
p1130
aS'http://farm3.static.flickr.com/2151/2039551655_e989126004.jpg\r\n'
p1131
aS'http://farm4.static.flickr.com/3576/3507647424_0ea4c5a769.jpg\r\n'
p1132
aS'http://farm5.static.flickr.com/4023/4521240013_9a9c49d84f.jpg\r\n'
p1133
aS'http://farm5.static.flickr.com/4096/4888830753_54bf956677.jpg\r\n'
p1134
aS'http://farm5.static.flickr.com/4081/4853795827_1d08212d75.jpg\r\n'
p1135
aS'http://farm3.static.flickr.com/2089/2498376906_b90a1a5310.jpg\r\n'
p1136
aS'http://farm1.static.flickr.com/25/55108088_2ca05772a4.jpg\r\n'
p1137
aS'http://farm5.static.flickr.com/4068/4687477501_314ed95996.jpg\r\n'
p1138
aS'http://farm4.static.flickr.com/3604/3412560460_6aed22f5e3.jpg\r\n'
p1139
aS'http://farm1.static.flickr.com/20/71123225_1590e2a8ed.jpg\r\n'
p1140
aS'http://farm2.static.flickr.com/1367/1449184878_b4efc54316.jpg\r\n'
p1141
aS'http://farm1.static.flickr.com/43/125678132_cc4bb2f671.jpg\r\n'
p1142
aS'http://farm4.static.flickr.com/3471/3854212473_cd852770ed.jpg\r\n'
p1143
aS'http://farm3.static.flickr.com/2412/1650201277_a7d25473dd.jpg\r\n'
p1144
aS'http://farm1.static.flickr.com/43/80709942_25332f5d3c.jpg\r\n'
p1145
aS'http://farm1.static.flickr.com/65/230420772_f3b39b66d9.jpg\r\n'
p1146
aS'http://farm4.static.flickr.com/3086/2370921209_9e470f7763.jpg\r\n'
p1147
aS'http://farm4.static.flickr.com/3190/2882682554_d22f854882.jpg\r\n'
p1148
aS'http://farm3.static.flickr.com/2015/2538565387_070c5bbb8d.jpg\r\n'
p1149
aS'http://farm4.static.flickr.com/3258/3140200109_3c20c5c303.jpg\r\n'
p1150
aS'http://farm3.static.flickr.com/2656/4099646138_957ce1e756.jpg\r\n'
p1151
aS'http://farm4.static.flickr.com/3059/2606809654_f4ebcb7dba.jpg\r\n'
p1152
aS'http://farm1.static.flickr.com/27/62057310_686ba30533.jpg\r\n'
p1153
aS'http://farm4.static.flickr.com/3385/3231517891_e701b9b283.jpg\r\n'
p1154
aS'http://farm1.static.flickr.com/30/55105765_3a037d7961.jpg\r\n'
p1155
aS'http://farm3.static.flickr.com/2719/4212368805_ce184087a6.jpg\r\n'
p1156
aS'http://farm4.static.flickr.com/3304/3490448145_948f789443.jpg\r\n'
p1157
aS'http://farm1.static.flickr.com/220/467414746_e67e76cca0.jpg\r\n'
p1158
aS'http://farm1.static.flickr.com/22/25843303_788ff96ea0.jpg\r\n'
p1159
aS'http://farm5.static.flickr.com/4089/4948996697_e3dd0a1b7b.jpg\r\n'
p1160
aS'http://farm2.static.flickr.com/1311/970307660_81899643bb.jpg\r\n'
p1161
aS'http://farm4.static.flickr.com/3230/2732540111_4189d1afb2.jpg\r\n'
p1162
aS'http://farm1.static.flickr.com/69/197997988_38bea3db6a.jpg\r\n'
p1163
aS'http://farm5.static.flickr.com/4109/5013098998_2c37b51115.jpg\r\n'
p1164
aS'http://farm3.static.flickr.com/2243/2523336238_1856739106.jpg\r\n'
p1165
aS'http://farm1.static.flickr.com/205/502482673_a84aad0507.jpg\r\n'
p1166
aS'http://farm4.static.flickr.com/3425/3371430173_7b1db3a183.jpg\r\n'
p1167
aS'http://farm5.static.flickr.com/4091/4968311875_282a5a762f.jpg\r\n'
p1168
aS'http://farm4.static.flickr.com/3128/3213429982_c472c87382.jpg\r\n'
p1169
aS'http://farm3.static.flickr.com/2023/2476813721_820415b3a9.jpg\r\n'
p1170
aS'http://farm4.static.flickr.com/3168/2561113209_2909b1d573.jpg\r\n'
p1171
aS'http://farm4.static.flickr.com/3133/2708513230_2182bf9ca6.jpg\r\n'
p1172
aS'http://farm4.static.flickr.com/3647/3345797910_f50084f169.jpg\r\n'
p1173
aS'http://farm1.static.flickr.com/152/368376778_d6bbec8aa2.jpg\r\n'
p1174
aS'http://farm4.static.flickr.com/3323/3506761121_c2f26195b2.jpg\r\n'
p1175
aS'http://farm4.static.flickr.com/3373/3655415573_0867f76d6a.jpg\r\n'
p1176
aS'http://farm1.static.flickr.com/145/342482562_8e8b6ed208.jpg\r\n'
p1177
aS'http://farm3.static.flickr.com/2276/1777585040_f2288e5acd.jpg\r\n'
p1178
aS'http://farm1.static.flickr.com/155/436802903_e56abf2466.jpg\r\n'
p1179
aS'http://farm1.static.flickr.com/194/512506658_1b2f616d95.jpg\r\n'
p1180
aS'http://farm1.static.flickr.com/50/167250760_bb3e5667cd.jpg\r\n'
p1181
aS'http://farm4.static.flickr.com/3598/3494123471_ba91014aea.jpg\r\n'
p1182
aS'http://farm3.static.flickr.com/2347/2164470360_fbfae9b221.jpg\r\n'
p1183
aS'http://farm4.static.flickr.com/3470/3399981987_eac8da8a70.jpg\r\n'
p1184
aS'http://farm3.static.flickr.com/2448/3699377018_8e967daca6.jpg\r\n'
p1185
aS'http://farm3.static.flickr.com/2063/1812492751_42bde8a7d9.jpg\r\n'
p1186
aS'http://farm3.static.flickr.com/2346/2256415444_6c884085bd.jpg\r\n'
p1187
aS'http://farm4.static.flickr.com/3286/3118939324_3726459485.jpg\r\n'
p1188
aS'http://farm5.static.flickr.com/4015/4345245291_db0c12e80c.jpg\r\n'
p1189
aS'http://farm4.static.flickr.com/3273/2968812668_a82291f780.jpg\r\n'
p1190
aS'http://farm1.static.flickr.com/76/164458739_c51d4657a1.jpg\r\n'
p1191
aS'http://farm3.static.flickr.com/2569/4079049741_1b3bc4fc5c.jpg\r\n'
p1192
aS'http://farm3.static.flickr.com/2634/4150574462_ca3d512894.jpg\r\n'
p1193
aS'http://farm3.static.flickr.com/2152/2140808020_a251b61757.jpg\r\n'
p1194
aS'http://farm2.static.flickr.com/1277/1096079076_c58b892148.jpg\r\n'
p1195
aS'http://farm1.static.flickr.com/93/275623811_b062ae683a.jpg\r\n'
p1196
aS'http://farm1.static.flickr.com/134/340564891_99c257a276.jpg\r\n'
p1197
aS'http://farm1.static.flickr.com/221/512501348_2133bb732b.jpg\r\n'
p1198
aS'http://farm3.static.flickr.com/2130/2459641443_26cedcd8d5.jpg\r\n'
p1199
aS'http://farm5.static.flickr.com/4135/4822063151_d0eb3212d1.jpg\r\n'
p1200
aS'http://farm2.static.flickr.com/1141/4723219369_13087f714f.jpg\r\n'
p1201
aS'http://farm3.static.flickr.com/2726/4328112306_3f5a2b034d.jpg\r\n'
p1202
aS'http://farm4.static.flickr.com/3021/3255405401_5131fb6d76.jpg\r\n'
p1203
aS'http://farm4.static.flickr.com/3074/2565716304_45c1e5c700.jpg\r\n'
p1204
aS'http://farm4.static.flickr.com/3456/3347558230_4b54016cd9.jpg\r\n'
p1205
aS'http://farm2.static.flickr.com/1149/910433809_d4490ef5c4.jpg\r\n'
p1206
aS'http://farm5.static.flickr.com/4039/4163862240_d2cfbfe32b.jpg\r\n'
p1207
aS'http://farm3.static.flickr.com/2196/3533732717_b2cb6b03e4.jpg\r\n'
p1208
aS'http://farm3.static.flickr.com/2467/3655423741_db738ef257.jpg\r\n'
p1209
aS'http://farm3.static.flickr.com/2334/2199708971_0a9f4278ac.jpg\r\n'
p1210
aS'http://farm5.static.flickr.com/4033/4706483941_4f8fc7cac5.jpg\r\n'
p1211
aS'http://farm4.static.flickr.com/3273/2725240326_62861d4398.jpg\r\n'
p1212
aS'http://farm5.static.flickr.com/4012/4441297043_7894379c3b.jpg\r\n'
p1213
aS'http://farm3.static.flickr.com/2190/2070693923_902e84b5ec.jpg\r\n'
p1214
aS'http://farm4.static.flickr.com/3106/2755767462_abc099624f.jpg\r\n'
p1215
aS'http://farm2.static.flickr.com/1333/775900680_bcca7ad8c3.jpg\r\n'
p1216
aS'http://farm5.static.flickr.com/4007/4707127050_187892a135.jpg\r\n'
p1217
aS'http://farm1.static.flickr.com/73/217490532_1a92710bed.jpg\r\n'
p1218
aS'http://farm2.static.flickr.com/1229/1301589005_818be4dd41.jpg\r\n'
p1219
aS'http://farm3.static.flickr.com/2263/2103929768_9183a435d2.jpg\r\n'
p1220
aS'http://farm4.static.flickr.com/3242/3011961539_5e92708366.jpg\r\n'
p1221
aS'http://farm1.static.flickr.com/21/31767628_f330398277.jpg\r\n'
p1222
aS'http://farm5.static.flickr.com/4037/4571328231_5b30b6985b.jpg\r\n'
p1223
aS'http://farm4.static.flickr.com/3342/3180391724_4fcf21be1d.jpg\r\n'
p1224
aS'http://farm5.static.flickr.com/4027/4635480036_bc6f4b8117.jpg\r\n'
p1225
aS'http://farm4.static.flickr.com/3105/2926212844_2e56113626.jpg\r\n'
p1226
aS'http://farm4.static.flickr.com/3325/3597146442_023baf2d55.jpg\r\n'
p1227
aS'http://farm3.static.flickr.com/2364/1808790545_edea470223.jpg\r\n'
p1228
aS'http://farm5.static.flickr.com/4122/4796057607_6275f00a23.jpg\r\n'
p1229
aS'http://farm3.static.flickr.com/2657/4079814686_01c7d25aa3.jpg\r\n'
p1230
aS'http://farm4.static.flickr.com/3614/3684808366_4402355f80.jpg\r\n'
p1231
aS'http://farm5.static.flickr.com/4082/4823037189_20ce2294d7.jpg\r\n'
p1232
aS'http://farm2.static.flickr.com/1286/978987134_c90e2c7875.jpg\r\n'
p1233
aS'http://farm4.static.flickr.com/3464/3990303034_4fb13a916c.jpg\r\n'
p1234
aS'http://farm3.static.flickr.com/2626/4079058019_9c783a6bfa.jpg\r\n'
p1235
aS'http://farm3.static.flickr.com/2431/3602420471_6178878168.jpg\r\n'
p1236
aS'http://farm1.static.flickr.com/10/15471022_a9255d80c9.jpg\r\n'
p1237
aS'http://farm4.static.flickr.com/3079/3231584311_1c6226ba31.jpg\r\n'
p1238
aS'http://farm5.static.flickr.com/4144/5038176014_5992f2f910.jpg\r\n'
p1239
aS'http://farm4.static.flickr.com/3496/4079816800_ea1a9792d6.jpg\r\n'
p1240
aS'http://farm4.static.flickr.com/3068/3042718491_e1d96ebaef.jpg\r\n'
p1241
aS'http://farm3.static.flickr.com/2411/1650171301_9034ace849.jpg\r\n'
p1242
aS'http://farm4.static.flickr.com/3034/2833098338_9af373a2fd.jpg\r\n'
p1243
aS'http://farm3.static.flickr.com/2205/2380945951_509b198689.jpg\r\n'
p1244
aS'http://farm4.static.flickr.com/3602/3324185063_dfa46f0d56.jpg\r\n'
p1245
aS'http://farm3.static.flickr.com/2337/2103943266_bd5ee40ed2.jpg\r\n'
p1246
aS'http://farm3.static.flickr.com/2442/4075357010_72df2c0b90.jpg\r\n'
p1247
aS'http://farm4.static.flickr.com/3425/3786176393_9e4d7577fb.jpg\r\n'
p1248
aS'http://farm4.static.flickr.com/3128/2661940048_45e9139f6d.jpg\r\n'
p1249
aS'http://farm1.static.flickr.com/84/225572585_3876e37046.jpg\r\n'
p1250
aS'http://farm1.static.flickr.com/193/479832241_97aa7a0d12.jpg\r\n'
p1251
aS'http://farm3.static.flickr.com/2645/3746215517_d02f1b64d3.jpg\r\n'
p1252
aS'http://farm3.static.flickr.com/2221/2252542691_91b3b466ee.jpg\r\n'
p1253
aS'http://farm3.static.flickr.com/2358/2068547601_4e2b347afe.jpg\r\n'
p1254
aS'http://farm2.static.flickr.com/1155/1290024957_ee8e075e53.jpg\r\n'
p1255
aS'http://farm4.static.flickr.com/3620/3444992062_278a35886b.jpg\r\n'
p1256
aS'http://farm4.static.flickr.com/3291/3115281103_0b41257c15.jpg\r\n'
p1257
aS'http://farm4.static.flickr.com/3160/2371755414_bdcfb520bf.jpg\r\n'
p1258
aS'http://farm3.static.flickr.com/2047/2131161660_770ed918d8.jpg\r\n'
p1259
aS'http://farm3.static.flickr.com/2435/3918978962_062b78fb8b.jpg\r\n'
p1260
aS'http://farm2.static.flickr.com/1247/1336007118_0226626e5c.jpg\r\n'
p1261
aS'http://farm4.static.flickr.com/3540/3447058726_9564d2eee4.jpg\r\n'
p1262
aS'http://farm3.static.flickr.com/2798/4322560699_b27343c332.jpg\r\n'
p1263
aS'http://farm4.static.flickr.com/3381/3188825777_0b223da99b.jpg\r\n'
p1264
aS'http://farm3.static.flickr.com/2718/4222509241_efdf217b08.jpg\r\n'
p1265
aS'http://farm5.static.flickr.com/4039/4690249891_cd2f28890e.jpg\r\n'
p1266
aS'http://farm1.static.flickr.com/125/371808773_509d73e792.jpg\r\n'
p1267
aS'http://farm4.static.flickr.com/3234/2592737890_dda41340d0.jpg\r\n'
p1268
aS'http://farm4.static.flickr.com/3276/2433840216_50e7d7b407.jpg\r\n'
p1269
aS'http://farm3.static.flickr.com/2249/2189357075_07813e21f5.jpg\r\n'
p1270
aS'http://farm1.static.flickr.com/14/16574438_6a8a44d4d8.jpg\r\n'
p1271
aS'http://farm1.static.flickr.com/186/463935770_225732cc93.jpg\r\n'
p1272
aS'http://farm3.static.flickr.com/2030/2227352171_a215ddfb98.jpg\r\n'
p1273
aS'http://farm4.static.flickr.com/3053/2712119337_374638ab08.jpg\r\n'
p1274
aS'http://farm3.static.flickr.com/2374/2301005170_2981fa76c6.jpg\r\n'
p1275
aS'http://farm4.static.flickr.com/3323/3239788579_9c18f5e851.jpg\r\n'
p1276
aS'http://farm4.static.flickr.com/3597/3585581642_c38d3867ee.jpg\r\n'
p1277
aS'http://farm3.static.flickr.com/2663/3976511081_b656fc0a95.jpg\r\n'
p1278
aS'http://farm1.static.flickr.com/93/263779697_f3a43dff1f.jpg\r\n'
p1279
aS'http://farm1.static.flickr.com/12/14760745_ace4df118b.jpg\r\n'
p1280
aS'http://farm1.static.flickr.com/24/37453631_ce10d6798a.jpg\r\n'
p1281
aS'http://farm4.static.flickr.com/3159/2594952343_b7e3531129.jpg\r\n'
p1282
aS'http://farm4.static.flickr.com/3190/2760457579_fde02bf949.jpg\r\n'
p1283
aS'http://farm4.static.flickr.com/3612/3437113071_5e04a66cd1.jpg\r\n'
p1284
aS'http://farm4.static.flickr.com/3614/3447054394_4334a0e020.jpg\r\n'
p1285
aS'http://farm3.static.flickr.com/2371/2172147419_9df6b5d8c4.jpg\r\n'
p1286
aS'http://farm4.static.flickr.com/3004/2517541251_89c84994d8.jpg\r\n'
p1287
aS'http://farm4.static.flickr.com/3416/3177109340_63c7b1c3a5.jpg\r\n'
p1288
aS'http://farm4.static.flickr.com/3144/2922909945_783c3ac694.jpg\r\n'
p1289
aS'http://farm3.static.flickr.com/2234/2310449017_a761140d20.jpg\r\n'
p1290
aS'http://farm4.static.flickr.com/3274/3117744157_14e549d988.jpg\r\n'
p1291
aS'http://farm2.static.flickr.com/1270/1150656593_6f154b9bbf.jpg\r\n'
p1292
aS'http://farm1.static.flickr.com/74/155961103_081beabca6.jpg\r\n'
p1293
aS'http://farm3.static.flickr.com/2054/2620805172_5bc4b3eab2.jpg\r\n'
p1294
aS'http://farm3.static.flickr.com/2246/2071489622_e8e1a056dc.jpg\r\n'
p1295
aS'http://farm4.static.flickr.com/3586/3446938149_78dee14abe.jpg\r\n'
p1296
aS'http://farm3.static.flickr.com/2115/2441949419_f065e55172.jpg\r\n'
p1297
aS'http://farm3.static.flickr.com/2486/4212368425_6209c04dd7.jpg\r\n'
p1298
aS'http://farm4.static.flickr.com/3289/3038935612_3da6584978.jpg\r\n'
p1299
aS'http://farm1.static.flickr.com/8/8059262_5c1411d25b.jpg\r\n'
p1300
aS'http://farm1.static.flickr.com/143/325265633_cd52653952.jpg\r\n'
p1301
aS'http://farm4.static.flickr.com/3509/3459087349_9afd06ab1e.jpg\r\n'
p1302
aS'http://farm5.static.flickr.com/4042/4586588466_fda8981e1c.jpg\r\n'
p1303
aS'http://farm3.static.flickr.com/2066/2254444382_81969667a9.jpg\r\n'
p1304
aS'http://farm1.static.flickr.com/47/150349312_f879d4f4da.jpg\r\n'
p1305
aS'http://farm5.static.flickr.com/4040/4162702604_1d3912961e.jpg\r\n'
p1306
aS'http://farm3.static.flickr.com/2518/3820762932_ce772a0a09.jpg\r\n'
p1307
aS'http://farm1.static.flickr.com/14/18160424_a84a66b49e.jpg\r\n'
p1308
aS'http://farm4.static.flickr.com/3451/3277598063_85fde8c161.jpg\r\n'
p1309
aS'http://farm4.static.flickr.com/3170/2825588661_f959805433.jpg\r\n'
p1310
aS'http://farm4.static.flickr.com/3077/2724427567_29c619c082.jpg\r\n'
p1311
aS'http://farm2.static.flickr.com/1089/598835691_f9cd0b75c2.jpg\r\n'
p1312
aS'http://farm1.static.flickr.com/71/202648556_1509b30384.jpg\r\n'
p1313
aS'http://farm3.static.flickr.com/2128/2478534595_383551bbc1.jpg\r\n'
p1314
aS'http://farm4.static.flickr.com/3383/3547697177_a34cb0792d.jpg\r\n'
p1315
aS'http://farm4.static.flickr.com/3282/2874016039_69281ab344.jpg\r\n'
p1316
aS'http://farm3.static.flickr.com/2231/2170163567_1bae346c2b.jpg\r\n'
p1317
aS'http://farm3.static.flickr.com/2110/2356449760_74a12e8723.jpg\r\n'
p1318
aS'http://farm4.static.flickr.com/3003/2605024030_568691f3de.jpg\r\n'
p1319
aS'http://farm5.static.flickr.com/4032/4216087834_477b83b832.jpg\r\n'
p1320
aS'http://farm5.static.flickr.com/4073/4899502862_86fdcbd27b.jpg\r\n'
p1321
aS'http://farm1.static.flickr.com/50/120968530_3ccc8998cd.jpg\r\n'
p1322
aS'http://farm4.static.flickr.com/3407/3332240775_5218d64e06.jpg\r\n'
p1323
aS'http://farm3.static.flickr.com/2588/4158730702_d74b18d4b8.jpg\r\n'
p1324
aS'http://farm4.static.flickr.com/3250/2689863182_9327277f57.jpg\r\n'
p1325
aS'http://farm1.static.flickr.com/61/186830791_21ab3630bb.jpg\r\n'
p1326
aS'http://farm4.static.flickr.com/3574/3946158991_b67baccf92.jpg\r\n'
p1327
aS'http://farm2.static.flickr.com/1284/4707144624_0511c776c9.jpg\r\n'
p1328
aS'http://farm4.static.flickr.com/3239/2289198336_978c83bb2b.jpg\r\n'
p1329
aS'http://farm5.static.flickr.com/4065/4674336474_a07912f6ca.jpg\r\n'
p1330
aS'http://farm1.static.flickr.com/246/444761664_489793541f.jpg\r\n'
p1331
aS'http://farm2.static.flickr.com/1346/1440308499_c2c2bfaf05.jpg\r\n'
p1332
aS'http://farm3.static.flickr.com/2356/1650990826_96320f2bd0.jpg\r\n'
p1333
aS'http://farm3.static.flickr.com/2443/3577161180_29e1294bfb.jpg\r\n'
p1334
aS'http://farm4.static.flickr.com/3458/3281212900_1ca7c1200b.jpg\r\n'
p1335
aS'http://farm3.static.flickr.com/2042/3544443317_b809b43123.jpg\r\n'
p1336
aS'http://farm1.static.flickr.com/35/71124542_fc8fe0080a.jpg\r\n'
p1337
aS'http://farm1.static.flickr.com/53/148214763_7ec93b701a.jpg\r\n'
p1338
aS'http://farm4.static.flickr.com/3314/3256235294_9b9bc97ccf.jpg\r\n'
p1339
aS'http://farm4.static.flickr.com/3562/3339859268_ecc76f0b05.jpg\r\n'
p1340
aS'http://farm3.static.flickr.com/2103/1762623870_d373e398a3.jpg\r\n'
p1341
aS'http://farm4.static.flickr.com/3566/3567637184_6d81d1734b.jpg\r\n'
p1342
aS'http://farm4.static.flickr.com/3403/3640113036_590cfd44e7.jpg\r\n'
p1343
aS'http://farm1.static.flickr.com/213/474813559_99d33dfcbe.jpg\r\n'
p1344
aS'http://farm3.static.flickr.com/2026/1651002494_2e008fa409.jpg\r\n'
p1345
aS'http://farm1.static.flickr.com/137/326462041_79a1c9e3e1.jpg\r\n'
p1346
aS'http://farm2.static.flickr.com/1422/1208073632_4a1b840e70.jpg\r\n'
p1347
aS'http://farm1.static.flickr.com/18/70661846_eb6fd4e4c6.jpg\r\n'
p1348
aS'http://farm3.static.flickr.com/2105/2126084058_239b8c1fc7.jpg\r\n'
p1349
aS'http://farm5.static.flickr.com/4095/4932546605_43a94230c6.jpg\r\n'
p1350
aS'http://farm4.static.flickr.com/3654/3414994704_f4c286cbf0.jpg\r\n'
p1351
aS'http://farm4.static.flickr.com/3054/2992664891_1abfe0aa03.jpg\r\n'
p1352
aS'http://farm5.static.flickr.com/4019/4484560250_9ced6c02b4.jpg\r\n'
p1353
aS'http://farm3.static.flickr.com/2222/1995562446_8b3fb6ff7f.jpg\r\n'
p1354
aS'http://farm3.static.flickr.com/2041/1650134195_9a4b51f06e.jpg\r\n'
p1355
aS'http://farm3.static.flickr.com/2614/3891762349_7ee665eb4d.jpg\r\n'
p1356
aS'http://farm5.static.flickr.com/4057/4706500817_aec28cfd22.jpg\r\n'
p1357
aS'http://farm3.static.flickr.com/2266/1536056996_e2dea39944.jpg\r\n'
p1358
aS'http://farm3.static.flickr.com/2607/3854972772_d2e4a4a18c.jpg\r\n'
p1359
aS'http://farm3.static.flickr.com/2148/1548690864_f8e3cd8004.jpg\r\n'
p1360
aS'http://farm1.static.flickr.com/51/108629647_cc3984e2c3.jpg\r\n'
p1361
aS'http://farm4.static.flickr.com/3111/2790583132_47df584235.jpg\r\n'
p1362
aS'http://farm4.static.flickr.com/3281/2749895365_8f1967e561.jpg\r\n'
p1363
aS'http://farm4.static.flickr.com/3124/3561496674_8d739a2dca.jpg\r\n'
p1364
aS'http://farm3.static.flickr.com/2451/3762905546_cf0f87f60c.jpg\r\n'
p1365
aS'http://farm3.static.flickr.com/2720/4082771958_aa3e6f26ed.jpg\r\n'
p1366
aS'http://farm3.static.flickr.com/2035/2323672012_c59d9cc93c.jpg\r\n'
p1367
aS'http://farm1.static.flickr.com/151/426093284_9c5c4df7c1.jpg\r\n'
p1368
aS'http://farm3.static.flickr.com/2772/4474474302_1418c182d9.jpg\r\n'
p1369
aS'http://farm4.static.flickr.com/3394/3410284958_9d86dcecbd.jpg\r\n'
p1370
aS'http://farm3.static.flickr.com/2480/3637959273_03b1482025.jpg\r\n'
p1371
aS'http://farm4.static.flickr.com/3220/3138119945_9a60f54d5e.jpg\r\n'
p1372
aS'http://farm4.static.flickr.com/3226/2698892321_c429124655.jpg\r\n'
p1373
aS'http://farm5.static.flickr.com/4067/4594732293_f4d6d4da25.jpg\r\n'
p1374
aS'http://farm4.static.flickr.com/3292/3155655836_e2f3457811.jpg\r\n'
p1375
aS'http://farm1.static.flickr.com/207/512500692_8007d5c4de.jpg\r\n'
p1376
aS'http://farm1.static.flickr.com/196/3263892057_ffe55d8515.jpg\r\n'
p1377
aS'http://farm1.static.flickr.com/15/18918750_82d66f9334.jpg\r\n'
p1378
aS'http://farm1.static.flickr.com/23/28447846_d740a21051.jpg\r\n'
p1379
aS'http://farm1.static.flickr.com/109/314864711_44e506f546.jpg\r\n'
p1380
aS'http://farm4.static.flickr.com/3287/2479347784_01b3cd39b7.jpg\r\n'
p1381
aS'http://farm1.static.flickr.com/94/275624632_294823cdb8.jpg\r\n'
p1382
aS'http://farm4.static.flickr.com/3247/2428399951_272b390eed.jpg\r\n'
p1383
aS'http://farm3.static.flickr.com/2417/2250512572_c18d561ae5.jpg\r\n'
p1384
aS'http://farm2.static.flickr.com/1406/728986390_1e44e98143.jpg\r\n'
p1385
aS'http://farm1.static.flickr.com/122/314863847_728e880269.jpg\r\n'
p1386
aS'http://farm4.static.flickr.com/3246/2790025333_8159629122.jpg\r\n'
p1387
aS'http://farm4.static.flickr.com/3604/3298868525_f1fbdea593.jpg\r\n'
p1388
aS'http://farm5.static.flickr.com/4058/4706499831_dc8e53078d.jpg\r\n'
p1389
aS'http://farm3.static.flickr.com/2210/2052023481_d1e8c73f21.jpg\r\n'
p1390
aS'http://farm3.static.flickr.com/2175/1776732233_7c3739b184.jpg\r\n'
p1391
aS'http://farm3.static.flickr.com/2085/1650191719_67d4dffab6.jpg\r\n'
p1392
aS'http://farm4.static.flickr.com/3014/2805389575_a11f324869.jpg\r\n'
p1393
aS'http://farm5.static.flickr.com/4081/4760978184_cd1bd61729.jpg\r\n'
p1394
aS'http://farm4.static.flickr.com/3096/2522512777_dd16f8b281.jpg\r\n'
p1395
aS'http://farm4.static.flickr.com/3220/2301003204_297be72187.jpg\r\n'
p1396
aS'http://farm3.static.flickr.com/2415/2302653092_e71985f2b1.jpg\r\n'
p1397
aS'http://farm4.static.flickr.com/3112/3171766781_720d31f804.jpg\r\n'
p1398
aS'http://farm4.static.flickr.com/3146/2677243392_7477612f31.jpg\r\n'
p1399
aS'http://farm3.static.flickr.com/2150/2433846020_e9c7726cb3.jpg\r\n'
p1400
aS'http://www.ens-newswire.com/ens/nov2004/20041123_childlead.jpg\r\n'
p1401
aS'http://farm2.static.flickr.com/1170/1023957907_8bf94a29bc.jpg\r\n'
p1402
aS'http://farm5.static.flickr.com/4005/4222560091_849a633d39.jpg\r\n'
p1403
aS'http://farm1.static.flickr.com/63/203803014_41a41484ba.jpg\r\n'
p1404
aS'http://farm3.static.flickr.com/2731/4097381071_450532e776.jpg\r\n'
p1405
aS'http://farm4.static.flickr.com/3632/3405971322_23eae03cac.jpg\r\n'
p1406
aS'http://farm1.static.flickr.com/166/425789918_8594411155.jpg\r\n'
p1407
aS'http://farm5.static.flickr.com/4114/4894337149_806c56327a.jpg\r\n'
p1408
aS'http://farm5.static.flickr.com/4034/4707136376_460e43fe1e.jpg\r\n'
p1409
aS'http://farm4.static.flickr.com/3591/3412564298_19bb368798.jpg\r\n'
p1410
aS'http://farm5.static.flickr.com/4075/4790045290_b7f72312e4.jpg\r\n'
p1411
aS'http://farm5.static.flickr.com/4025/4273608461_5724b6381a.jpg\r\n'
p1412
aS'http://farm3.static.flickr.com/2292/1598015689_2a28a5c05c.jpg\r\n'
p1413
aS'http://farm4.static.flickr.com/3582/3297976171_259d6eec74.jpg\r\n'
p1414
aS'http://farm5.static.flickr.com/4040/4344220402_e05c461774.jpg\r\n'
p1415
aS'http://farm3.static.flickr.com/2482/4473689139_4b52b6c8b3.jpg\r\n'
p1416
aS'http://farm1.static.flickr.com/52/146493129_64ca929a2a.jpg\r\n'
p1417
aS'http://farm1.static.flickr.com/87/218672731_c65d9248da.jpg\r\n'
p1418
aS'http://farm3.static.flickr.com/2617/3681165680_fd50f43393.jpg\r\n'
p1419
aS'http://farm2.static.flickr.com/1271/4706493163_8d3e6fdfa0.jpg\r\n'
p1420
aS'http://farm3.static.flickr.com/2367/2253131104_47c369d6df.jpg\r\n'
p1421
aS'http://farm4.static.flickr.com/3238/2732900668_b53c685c37.jpg\r\n'
p1422
aS'http://farm4.static.flickr.com/3029/2799120808_1c7fe17ab8.jpg\r\n'
p1423
aS'http://farm1.static.flickr.com/134/339348623_d24f919305.jpg\r\n'
p1424
aS'http://farm2.static.flickr.com/1183/870251279_c0718f60ca.jpg\r\n'
p1425
aS'http://farm5.static.flickr.com/4085/4991529836_24445a7ae4.jpg\r\n'
p1426
aS'http://farm4.static.flickr.com/3328/3237683004_aaba0e2299.jpg\r\n'
p1427
aS'http://farm4.static.flickr.com/3155/2536216088_ab4257cf65.jpg\r\n'
p1428
aS'http://farm3.static.flickr.com/2393/2333819067_344a7b52a5.jpg\r\n'
p1429
aS'http://farm4.static.flickr.com/3125/3190790943_1bc2bcc53a.jpg\r\n'
p1430
aS'http://farm1.static.flickr.com/205/474814301_b251018d40.jpg\r\n'
p1431
aS'http://farm1.static.flickr.com/71/339321558_33849a4387.jpg\r\n'
p1432
aS'http://farm4.static.flickr.com/3636/3455917287_69d6cc36e8.jpg\r\n'
p1433
aS'http://farm4.static.flickr.com/3124/2523758278_d24ba9ea59.jpg\r\n'
p1434
aS'http://farm4.static.flickr.com/3578/3692634071_de4f7423c9.jpg\r\n'
p1435
aS'http://farm4.static.flickr.com/3470/3849681512_21bdf0bc45.jpg\r\n'
p1436
aS'http://farm4.static.flickr.com/3002/2930883880_f841c072e2.jpg\r\n'
p1437
aS'http://farm3.static.flickr.com/2557/4079051529_015c64f1b8.jpg\r\n'
p1438
aS'http://farm2.static.flickr.com/1360/1062438342_7435644daa.jpg\r\n'
p1439
aS'http://farm4.static.flickr.com/3333/3293736624_bb5f64efcc.jpg\r\n'
p1440
aS'http://farm4.static.flickr.com/3254/2917141649_6cb6cdc90d.jpg\r\n'
p1441
aS'http://farm1.static.flickr.com/21/35827396_af124abc74.jpg\r\n'
p1442
aS'http://farm3.static.flickr.com/2443/3928238800_141d0a8f58.jpg\r\n'
p1443
aS'http://farm3.static.flickr.com/2438/3541796435_9c0440c581.jpg\r\n'
p1444
aS'http://farm5.static.flickr.com/4075/4862653113_b533463ee9.jpg\r\n'
p1445
aS'http://farm3.static.flickr.com/2361/2326675851_02114a4447.jpg\r\n'
p1446
aS'http://farm1.static.flickr.com/58/196864929_6f813ffe38.jpg\r\n'
p1447
aS'http://farm1.static.flickr.com/46/190902081_281217a6e1.jpg\r\n'
p1448
aS'http://farm4.static.flickr.com/3316/3236954963_d6f36c63a0.jpg\r\n'
p1449
aS'http://farm3.static.flickr.com/2396/2368558658_2fb736698e.jpg\r\n'
p1450
aS'http://farm3.static.flickr.com/2167/2238899730_7ac3c5657d.jpg\r\n'
p1451
aS'http://farm1.static.flickr.com/24/47365650_b248b3f336.jpg\r\n'
p1452
aS'http://farm3.static.flickr.com/2272/2070697333_c5f7697812.jpg\r\n'
p1453
aS'http://farm4.static.flickr.com/3488/3461618099_12b4e6729e.jpg\r\n'
p1454
aS'http://farm3.static.flickr.com/2423/4079816722_b00535b76e.jpg\r\n'
p1455
aS'http://farm4.static.flickr.com/3347/3626765506_c585ec2a14.jpg\r\n'
p1456
aS'http://farm1.static.flickr.com/200/512501622_0a853154ec.jpg\r\n'
p1457
aS'http://farm3.static.flickr.com/2246/2480071526_9aac7349d3.jpg\r\n'
p1458
aS'http://farm1.static.flickr.com/26/54559142_5a08e9dab1.jpg\r\n'
p1459
aS'http://farm2.static.flickr.com/1324/1366161552_0bd76661f6.jpg\r\n'
p1460
aS'http://farm3.static.flickr.com/2152/3529191632_393c10c529.jpg\r\n'
p1461
aS'http://farm4.static.flickr.com/3128/2750728380_35f71ac4d0.jpg\r\n'
p1462
aS'http://farm4.static.flickr.com/3661/3578207530_349a8a3be8.jpg\r\n'
p1463
aS'http://farm5.static.flickr.com/4022/4569960306_30fc73daae.jpg\r\n'
p1464
aS'http://farm2.static.flickr.com/1314/1450668759_6625146d51.jpg\r\n'
p1465
aS'http://farm4.static.flickr.com/3650/3516922291_22557c6bd8.jpg\r\n'
p1466
aS'http://farm4.static.flickr.com/3087/3171777197_fecf759887.jpg\r\n'
p1467
aS'http://farm3.static.flickr.com/2235/2392526791_b631ae89a5.jpg\r\n'
p1468
aS'http://farm1.static.flickr.com/36/93832600_19ae38148a.jpg\r\n'
p1469
aS'http://farm1.static.flickr.com/70/196855978_57f15ceaa4.jpg\r\n'
p1470
aS'http://farm4.static.flickr.com/3493/3747439349_7fe0f0970e.jpg\r\n'
p1471
aS'http://farm1.static.flickr.com/195/512499826_71be873cdb.jpg\r\n'
p1472
aS'http://farm2.static.flickr.com/1346/998695812_e274b9e91e.jpg\r\n'
p1473
aS'http://farm3.static.flickr.com/2081/2368561606_45f93908a9.jpg\r\n'
p1474
aS'http://farm1.static.flickr.com/106/252076208_3622b44f5c.jpg\r\n'
p1475
aS'http://farm3.static.flickr.com/2027/2038862298_93e5a4fe0e.jpg\r\n'
p1476
aS'http://farm4.static.flickr.com/3099/4552320804_05a72c5ab9.jpg\r\n'
p1477
aS'http://farm4.static.flickr.com/3119/3213160571_48f5ccede3.jpg\r\n'
p1478
aS'http://farm3.static.flickr.com/2501/3761807666_dfe6c26747.jpg\r\n'
p1479
aS'http://farm3.static.flickr.com/2551/3894440782_7ccfebea59.jpg\r\n'
p1480
aS'http://farm4.static.flickr.com/3110/2752861498_9d6d2cafde.jpg\r\n'
p1481
aS'http://farm3.static.flickr.com/2790/4256760494_f83a3e6ce5.jpg\r\n'
p1482
aS'http://farm4.static.flickr.com/3613/3360539155_b653222a76.jpg\r\n'
p1483
aS'http://farm3.static.flickr.com/2733/4417905614_0e546de754.jpg\r\n'
p1484
aS'http://farm4.static.flickr.com/3050/2296855265_0a5a51fc6d.jpg\r\n'
p1485
aS'http://farm5.static.flickr.com/4104/5058678451_3321cef77c.jpg\r\n'
p1486
aS'http://farm4.static.flickr.com/3277/2479344850_153ba07421.jpg\r\n'
p1487
aS'http://farm5.static.flickr.com/4134/4822680440_b86e874080.jpg\r\n'
p1488
aS'http://farm3.static.flickr.com/2109/2193640786_c8468e0fa7.jpg\r\n'
p1489
aS'http://farm4.static.flickr.com/3491/3719862745_d3f10c3446.jpg\r\n'
p1490
aS'http://farm2.static.flickr.com/1076/3266728913_263307186a.jpg\r\n'
p1491
aS'http://farm1.static.flickr.com/194/478690871_83b2795d65.jpg\r\n'
p1492
aS'http://farm3.static.flickr.com/2041/1530421056_7c43ccde23.jpg\r\n'
p1493
aS'http://farm1.static.flickr.com/81/207789222_88ec0add21.jpg\r\n'
p1494
aS'http://farm5.static.flickr.com/4028/4706501093_2997c0621f.jpg\r\n'
p1495
aS'http://www.suffolk.gov.uk/NR/rdonlyres/DA165C25-60F8-4B5F-8DB4-03F52D845FFD/0/FELibraryBabyCafelaunchbabyHV.jpg\r\n'
p1496
aS'http://farm1.static.flickr.com/26/97573479_366e2a4b7f.jpg\r\n'
p1497
aS'http://farm1.static.flickr.com/149/399054571_840568046c.jpg\r\n'
p1498
aS'http://pr.water.usgs.gov/public/water_use/img/child_drinking.jpg\r\n'
p1499
aS'http://blog.dailycal.org/photo/files/2009/09/img_5135j.jpg\r\n'
p1500
aS'http://farm3.static.flickr.com/2330/2371758476_1e1a5a0e63.jpg\r\n'
p1501
aS'http://static.flickr.com/2494/3786892853_60e92de0f5.jpg\r\n'
p1502
aS'http://farm4.static.flickr.com/3249/2357773401_f480e27d70.jpg\r\n'
p1503
aS'http://farm1.static.flickr.com/175/439986923_63c4ae30a8.jpg\r\n'
p1504
aS'http://farm3.static.flickr.com/2583/4125439981_2cee596d56.jpg\r\n'
p1505
aS'http://farm3.static.flickr.com/2548/4079054609_e5e32c63ff.jpg\r\n'
p1506
aS'http://farm2.static.flickr.com/1130/766376452_082a85ad67.jpg\r\n'
p1507
aS'http://alexistoledo.psuv.org.ve/wp-content/uploads/2009/02/cmdnna-1.jpg\r\n'
p1508
aS'http://farm2.static.flickr.com/1210/1265756072_e295cca31e.jpg\r\n'
p1509
aS'http://www.themoneytimes.com/filess/child_2.jpg\r\n'
p1510
aS'http://farm1.static.flickr.com/130/376668644_682bc9fbb5.jpg\r\n'
p1511
aS'http://farm3.static.flickr.com/2410/2247474228_eec625c0f6.jpg\r\n'
p1512
aS'http://farm3.static.flickr.com/2253/2039583899_7325b06c38.jpg\r\n'
p1513
aS'http://www.frontline-foundation.org/person2.jpg\r\n'
p1514
aS'http://www.literaturalibre.com/wp-content/uploads/2009/08/hasta-que-caiga-el-sol.jpg\r\n'
p1515
aS'http://farm4.static.flickr.com/3440/3766492129_a97103ba60.jpg\r\n'
p1516
aS'http://prod-www.dana-farber.org/pat/patientprofiles/firstperson/images/blanc-lynch-family.jpg\r\n'
p1517
aS'http://fieldnotes.unicefusa.org/not-child-friendly.jpg\r\n'
p1518
aS'http://www.awsaeast.org/images/image00220.jpg\r\n'
p1519
aS'http://farm3.static.flickr.com/2220/2098301446_70cdc999f8.jpg\r\n'
p1520
aS'http://frederickhodges.com/babypeggy.jpg\r\n'
p1521
aS'http://farm4.static.flickr.com/3117/2788745517_2bfc1091a1.jpg\r\n'
p1522
aS'http://farm4.static.flickr.com/3381/4640305088_feff5ceb05.jpg\r\n'
p1523
aS'http://farm2.static.flickr.com/1221/557216121_a7be03c21a.jpg\r\n'
p1524
aS'http://farm3.static.flickr.com/2101/2327345502_4b10b08dd4.jpg\r\n'
p1525
aS'http://www.valpo.edu/library/imls/2005/shawn/pics/baby.jpg\r\n'
p1526
aS'\n'
p1527
a.