(lp0
S'http://farm3.static.flickr.com/2197/2144806776_ed0899b364.jpg\r\n'
p1
aS'http://farm4.static.flickr.com/3179/2326862001_6765892ff9.jpg\r\n'
p2
aS'http://farm4.static.flickr.com/3611/3430704841_28b6288173.jpg\r\n'
p3
aS'http://farm3.static.flickr.com/2472/3950549624_c3904ae931.jpg\r\n'
p4
aS'http://farm5.static.flickr.com/4012/4218378204_93985fd695.jpg\r\n'
p5
aS'http://farm3.static.flickr.com/2471/3553719863_ecced4be52.jpg\r\n'
p6
aS'http://farm5.static.flickr.com/4141/4822939845_0dc1277a25.jpg\r\n'
p7
aS'http://farm4.static.flickr.com/3085/2838673438_448624a106.jpg\r\n'
p8
aS'http://farm3.static.flickr.com/2246/2359817744_120de634e5.jpg\r\n'
p9
aS'http://farm4.static.flickr.com/3279/2578873053_f4711592ea.jpg\r\n'
p10
aS'http://farm3.static.flickr.com/2180/2328885828_5c0c220883.jpg\r\n'
p11
aS'http://farm3.static.flickr.com/2403/2329603682_70af450abc.jpg\r\n'
p12
aS'http://farm4.static.flickr.com/3040/2329728823_c0ce7d5b0c.jpg\r\n'
p13
aS'http://farm5.static.flickr.com/4061/4516204658_0272c3b838.jpg\r\n'
p14
aS'http://fast.mediamatic.nl/f/drzr/image/637/11534-305-204.jpg\r\n'
p15
aS'http://farm4.static.flickr.com/3350/3456096604_ce87143965.jpg\r\n'
p16
aS'http://farm3.static.flickr.com/2356/2325513796_408072aaef.jpg\r\n'
p17
aS'http://farm5.static.flickr.com/4116/4825083331_54a4c24976.jpg\r\n'
p18
aS'http://farm5.static.flickr.com/4079/4806395934_37fb8ae5fe.jpg\r\n'
p19
aS'http://farm3.static.flickr.com/2166/2330462468_abb1d45845.jpg\r\n'
p20
aS'http://farm5.static.flickr.com/4006/4258591107_fc6395e25c.jpg\r\n'
p21
aS'http://farm3.static.flickr.com/2364/2358992546_20373e8610.jpg\r\n'
p22
aS'http://farm1.static.flickr.com/122/277733754_b378c0e1f0.jpg\r\n'
p23
aS'http://farm5.static.flickr.com/4033/4713872683_7489d5f3c1.jpg\r\n'
p24
aS'http://farm4.static.flickr.com/3016/2359783084_f480edc67d.jpg\r\n'
p25
aS'http://farm4.static.flickr.com/3269/2742681718_e4d4c63808.jpg\r\n'
p26
aS'http://farm4.static.flickr.com/3240/2360953613_ce5aa295ec.jpg\r\n'
p27
aS'http://farm4.static.flickr.com/3327/4575791779_59d9a1d03c.jpg\r\n'
p28
aS'http://farm4.static.flickr.com/3042/3007661545_2ac58c33f2.jpg\r\n'
p29
aS'http://farm3.static.flickr.com/2335/2512012677_ae4205ccf1.jpg\r\n'
p30
aS'http://farm1.static.flickr.com/143/371806899_2f52f38b79.jpg\r\n'
p31
aS'http://farm1.static.flickr.com/133/415946596_4c3af4fd79.jpg\r\n'
p32
aS'http://farm4.static.flickr.com/3031/2633729601_113497b5c0.jpg\r\n'
p33
aS'http://farm4.static.flickr.com/3107/2329706953_71b34697fe.jpg\r\n'
p34
aS'http://farm4.static.flickr.com/3345/3553720269_cfde1b6ef0.jpg\r\n'
p35
aS'http://farm2.static.flickr.com/1147/1473407246_f4aae252ec.jpg\r\n'
p36
aS'http://farm4.static.flickr.com/3514/3949773193_aa17817b42.jpg\r\n'
p37
aS'http://farm4.static.flickr.com/3448/3190292703_aacb61723d.jpg\r\n'
p38
aS'http://farm4.static.flickr.com/3416/3224391348_cc8cfd620c.jpg\r\n'
p39
aS'http://farm4.static.flickr.com/3271/3554526348_a64d6df640.jpg\r\n'
p40
aS'http://farm3.static.flickr.com/2297/2326792643_c7239a8492.jpg\r\n'
p41
aS'http://farm4.static.flickr.com/3218/2328229223_9c7f830675.jpg\r\n'
p42
aS'http://farm5.static.flickr.com/4011/4187288720_e58753f319.jpg\r\n'
p43
aS'http://farm3.static.flickr.com/2026/2329732390_959c89009d.jpg\r\n'
p44
aS'http://farm3.static.flickr.com/2131/2328923250_9e6d5b460b.jpg\r\n'
p45
aS'http://farm3.static.flickr.com/2111/2358856737_bef2e751b4.jpg\r\n'
p46
aS'http://farm4.static.flickr.com/3154/2661505033_1126035aa1.jpg\r\n'
p47
aS'http://farm3.static.flickr.com/2362/2325325006_bd94e5b7f3.jpg\r\n'
p48
aS'http://farm5.static.flickr.com/4138/4823557488_d47694477a.jpg\r\n'
p49
aS'http://farm5.static.flickr.com/4030/4469540318_08f475b681.jpg\r\n'
p50
aS'http://farm4.static.flickr.com/3298/4567927918_ed0eda91af.jpg\r\n'
p51
aS'http://www.ze.nl/artikelen/Image/thumbs/rem_1024_200.jpeg\r\n'
p52
aS'http://farm3.static.flickr.com/2046/2325094403_34c8f320e4.jpg\r\n'
p53
aS'http://farm4.static.flickr.com/3063/2324558329_09956e5700.jpg\r\n'
p54
aS'http://farm3.static.flickr.com/2590/3950553014_79d3216205.jpg\r\n'
p55
aS'http://farm1.static.flickr.com/132/317975517_1ed35463e4.jpg\r\n'
p56
aS'http://farm3.static.flickr.com/2180/2327811547_37e259e01f.jpg\r\n'
p57
aS'http://farm4.static.flickr.com/3190/2324759233_a65992f442.jpg\r\n'
p58
aS'http://farm3.static.flickr.com/2066/2328924564_dfd4de943b.jpg\r\n'
p59
aS'http://farm4.static.flickr.com/3586/3553723961_6eb3225634.jpg\r\n'
p60
aS'http://farm3.static.flickr.com/2543/4015893323_ec468b9539.jpg\r\n'
p61
aS'http://farm1.static.flickr.com/48/106335230_45d793566f.jpg\r\n'
p62
aS'http://farm4.static.flickr.com/3212/2358115509_eeca637c71.jpg\r\n'
p63
aS'http://farm1.static.flickr.com/34/88878408_e2db2d1c35.jpg\r\n'
p64
aS'http://farm4.static.flickr.com/3313/3554525106_91f446f166.jpg\r\n'
p65
aS'http://farm3.static.flickr.com/2029/2328120093_b56a1c217c.jpg\r\n'
p66
aS'http://farm4.static.flickr.com/3240/2813092411_93e3aeac41.jpg\r\n'
p67
aS'http://farm4.static.flickr.com/3303/4590578773_0cbf0e3a4a.jpg\r\n'
p68
aS'http://farm1.static.flickr.com/45/119986750_00f35f5101.jpg\r\n'
p69
aS'http://farm4.static.flickr.com/3164/2324797804_e2361176ac.jpg\r\n'
p70
aS'http://farm1.static.flickr.com/84/224541567_6b1e5f2b7d.jpg\r\n'
p71
aS'http://farm3.static.flickr.com/2249/2328093507_825e79df68.jpg\r\n'
p72
aS'http://farm1.static.flickr.com/31/58217026_b175f0e822.jpg\r\n'
p73
aS'http://farm4.static.flickr.com/3466/3950553790_b731595b78.jpg\r\n'
p74
aS'http://farm5.static.flickr.com/4071/4575810935_a4f0eba6e9.jpg\r\n'
p75
aS'http://farm1.static.flickr.com/67/198205641_5b62efb5d6.jpg\r\n'
p76
aS'http://farm5.static.flickr.com/4097/4825542973_3dc7fbe6b0.jpg\r\n'
p77
aS'http://farm5.static.flickr.com/4035/4444494602_a6ea2aab57.jpg\r\n'
p78
aS'http://judrap.com/images/confused-man-computer.jpg\r\n'
p79
aS'http://farm4.static.flickr.com/3238/2330235694_046104bdb5.jpg\r\n'
p80
aS'http://farm1.static.flickr.com/245/522743865_83df6daf5d.jpg\r\n'
p81
aS'http://farm3.static.flickr.com/2084/2328708514_444b32af27.jpg\r\n'
p82
aS'http://farm3.static.flickr.com/2356/2328254774_fffcf20246.jpg\r\n'
p83
aS'http://farm2.static.flickr.com/1421/1129722670_fd507000e7.jpg\r\n'
p84
aS'http://farm1.static.flickr.com/55/116084582_831d1ef8b0.jpg\r\n'
p85
aS'http://farm3.static.flickr.com/2409/2329508291_87dcf80d7e.jpg\r\n'
p86
aS'http://farm5.static.flickr.com/4054/4258596751_c06b5ac87c.jpg\r\n'
p87
aS'http://farm5.static.flickr.com/4024/4438625988_8c68a7e98b.jpg\r\n'
p88
aS'http://farm3.static.flickr.com/2380/2066534321_24d06f6146.jpg\r\n'
p89
aS'http://farm4.static.flickr.com/3444/3216053252_25b6f223d8.jpg\r\n'
p90
aS'http://farm5.static.flickr.com/4128/5033147405_e224ecd362.jpg\r\n'
p91
aS'http://farm4.static.flickr.com/3237/2598171795_9f3c88818c.jpg\r\n'
p92
aS'http://farm3.static.flickr.com/2244/2376050820_c05ac38388.jpg\r\n'
p93
aS'http://farm4.static.flickr.com/3147/2327976651_d862a604c2.jpg\r\n'
p94
aS'http://farm5.static.flickr.com/4053/4534179523_396753ba32.jpg\r\n'
p95
aS'http://farm4.static.flickr.com/3041/2329009710_2c91e6d1a4.jpg\r\n'
p96
aS'http://farm3.static.flickr.com/2244/2327793491_1677f60fe4.jpg\r\n'
p97
aS'http://farm4.static.flickr.com/3586/3334305029_8588d313fa.jpg\r\n'
p98
aS'http://farm4.static.flickr.com/3221/2330433430_1077496647.jpg\r\n'
p99
aS'http://farm3.static.flickr.com/2204/2267878501_d27c748226.jpg\r\n'
p100
aS'http://farm3.static.flickr.com/2437/3949773939_d5a78a9d54.jpg\r\n'
p101
aS'http://farm3.static.flickr.com/2405/2421264854_f58ecf6a10.jpg\r\n'
p102
aS'http://farm2.static.flickr.com/1356/1358830591_f716b3a53e.jpg\r\n'
p103
aS'http://farm3.static.flickr.com/2792/4075242462_a4f782a843.jpg\r\n'
p104
aS'http://farm5.static.flickr.com/4057/4576453672_783032fc97.jpg\r\n'
p105
aS'http://farm4.static.flickr.com/3210/2330318884_5cff28ee74.jpg\r\n'
p106
aS'http://farm4.static.flickr.com/3194/2358913341_9786458e67.jpg\r\n'
p107
aS'http://farm5.static.flickr.com/4007/4363037492_04acd81c7d.jpg\r\n'
p108
aS'http://farm2.static.flickr.com/1234/533827414_57082c2610.jpg\r\n'
p109
aS'http://farm4.static.flickr.com/3612/3493898039_5fe7c858c3.jpg\r\n'
p110
aS'http://farm5.static.flickr.com/4068/4704319603_4f7bd376be.jpg\r\n'
p111
aS'http://farm2.static.flickr.com/1150/878664043_9415e141c7.jpg\r\n'
p112
aS'http://farm5.static.flickr.com/4018/4292949751_c80d99f102.jpg\r\n'
p113
aS'http://farm5.static.flickr.com/4066/4348822998_1c29665bbb.jpg\r\n'
p114
aS'http://farm4.static.flickr.com/3482/3949768831_155a68655f.jpg\r\n'
p115
aS'http://farm3.static.flickr.com/2043/2328601615_3bdaef0379.jpg\r\n'
p116
aS'http://farm4.static.flickr.com/3269/2360855777_a4b3c0f7f2.jpg\r\n'
p117
aS'http://farm5.static.flickr.com/4023/4470335040_60d68022be.jpg\r\n'
p118
aS'http://farm4.static.flickr.com/3033/2914739679_b503f9860d.jpg\r\n'
p119
aS'http://farm4.static.flickr.com/3326/3430666555_b55e311a7f.jpg\r\n'
p120
aS'http://farm3.static.flickr.com/2056/2359653868_8eb6447726.jpg\r\n'
p121
aS'http://farm3.static.flickr.com/2047/2330535074_95d11984eb.jpg\r\n'
p122
aS'http://farm4.static.flickr.com/3023/2330599332_300339150f.jpg\r\n'
p123
aS'http://farm4.static.flickr.com/3134/2330357532_214a8cfe02.jpg\r\n'
p124
aS'http://farm4.static.flickr.com/3258/2329016230_c9e445bc4b.jpg\r\n'
p125
aS'http://farm3.static.flickr.com/2207/2330045600_249f8e8d71.jpg\r\n'
p126
aS'http://farm3.static.flickr.com/2439/3665962334_32d67a0db0.jpg\r\n'
p127
aS'http://farm5.static.flickr.com/4047/4412670063_fdeb5e82d9.jpg\r\n'
p128
aS'http://farm5.static.flickr.com/4084/4989443887_f15e867ee1.jpg\r\n'
p129
aS'http://farm4.static.flickr.com/3614/3553719327_fe6e85a4f5.jpg\r\n'
p130
aS'http://farm3.static.flickr.com/2171/2329521849_f2765c75c3.jpg\r\n'
p131
aS'http://farm3.static.flickr.com/2186/2323926782_5a3f8068ff.jpg\r\n'
p132
aS'http://farm3.static.flickr.com/2594/3950549118_12b41619ca.jpg\r\n'
p133
aS'http://farm3.static.flickr.com/2093/2329027959_6dcc53df90.jpg\r\n'
p134
aS'http://farm5.static.flickr.com/4046/4544081738_fd74226fbb.jpg\r\n'
p135
aS'http://farm3.static.flickr.com/2172/2330139694_ec41d1abe5.jpg\r\n'
p136
aS'http://farm4.static.flickr.com/3109/2329870024_9a6d3ca60b.jpg\r\n'
p137
aS'http://farm1.static.flickr.com/74/227701311_efa8244b3c.jpg\r\n'
p138
aS'http://farm3.static.flickr.com/2028/2324702325_5f5ea7067d.jpg\r\n'
p139
aS'http://farm3.static.flickr.com/2179/2327797347_8b8584f7c5.jpg\r\n'
p140
aS'http://farm4.static.flickr.com/3471/3243370012_3e703635d9.jpg\r\n'
p141
aS'http://farm3.static.flickr.com/2748/4365166884_999e3e5da9.jpg\r\n'
p142
aS'http://farm4.static.flickr.com/3088/2360871047_2500315343.jpg\r\n'
p143
aS'http://farm3.static.flickr.com/2775/4534814454_8d205c4825.jpg\r\n'
p144
aS'http://farm5.static.flickr.com/4072/4620917214_b28dd9b1ae.jpg\r\n'
p145
aS'http://farm3.static.flickr.com/2342/2325796820_d1f3b73e3b.jpg\r\n'
p146
aS'http://farm4.static.flickr.com/3142/2359751870_66d9febe1a.jpg\r\n'
p147
aS'http://farm4.static.flickr.com/3166/2325949578_98eb7e83df.jpg\r\n'
p148
aS'http://farm3.static.flickr.com/2330/2329600892_f019cae415.jpg\r\n'
p149
aS'http://farm5.static.flickr.com/4044/4544085308_dca9311e7b.jpg\r\n'
p150
aS'http://farm4.static.flickr.com/3633/3318017806_43e1959ff1.jpg\r\n'
p151
aS'http://farm5.static.flickr.com/4056/4231497440_b63064aa15.jpg\r\n'
p152
aS'http://farm3.static.flickr.com/2729/4381489880_5a7dccae85.jpg\r\n'
p153
aS'http://farm3.static.flickr.com/2040/2330442544_6bccc53685.jpg\r\n'
p154
aS'http://farm1.static.flickr.com/15/21363646_d959c68886.jpg\r\n'
p155
aS'http://farm4.static.flickr.com/3652/3681716800_060f053796.jpg\r\n'
p156
aS'http://farm4.static.flickr.com/3404/3553717131_dbc64655dc.jpg\r\n'
p157
aS'http://farm3.static.flickr.com/2281/2324939403_5ed578a4d0.jpg\r\n'
p158
aS'http://farm3.static.flickr.com/2788/4240353634_f90e95720d.jpg\r\n'
p159
aS'http://farm3.static.flickr.com/2297/1911815432_ef26eb26d0.jpg\r\n'
p160
aS'http://farm4.static.flickr.com/3380/3672160490_ce5c7f2dab.jpg\r\n'
p161
aS'http://farm3.static.flickr.com/2244/2329408421_5e371e6302.jpg\r\n'
p162
aS'http://farm5.static.flickr.com/4023/4273176051_1da485b0c5.jpg\r\n'
p163
aS'http://farm5.static.flickr.com/4061/4445032883_1f695961c8.jpg\r\n'
p164
aS'http://farm4.static.flickr.com/3012/2329915156_9e7dcb73d5.jpg\r\n'
p165
aS'http://farm3.static.flickr.com/2641/4186528997_688df6a6b9.jpg\r\n'
p166
aS'http://www.kennislink.nl/upload/150646_962_1145560122792-toekomst5.jpg\r\n'
p167
aS'http://farm5.static.flickr.com/4134/4825085581_7be4647d51.jpg\r\n'
p168
aS'http://farm3.static.flickr.com/2356/2327797310_c76da4c256.jpg\r\n'
p169
aS'http://farm1.static.flickr.com/171/443659618_396ad4c67f.jpg\r\n'
p170
aS'http://farm4.static.flickr.com/3048/2361117981_3006bb01ef.jpg\r\n'
p171
aS'http://farm3.static.flickr.com/2222/2326968841_d38ca78241.jpg\r\n'
p172
aS'http://farm4.static.flickr.com/3234/2328736201_dcd3cee3d5.jpg\r\n'
p173
aS'http://farm5.static.flickr.com/4048/4544089002_e115261041.jpg\r\n'
p174
aS'http://farm4.static.flickr.com/3029/2327293931_75e2bbeb3d.jpg\r\n'
p175
aS'http://farm4.static.flickr.com/3211/3141805294_7d2c23ee36.jpg\r\n'
p176
aS'http://farm1.static.flickr.com/94/246560634_38e4936a94.jpg\r\n'
p177
aS'http://farm3.static.flickr.com/2034/2328811779_19e13bb21a.jpg\r\n'
p178
aS'http://farm3.static.flickr.com/2529/3950554096_66323e4761.jpg\r\n'
p179
aS'http://farm2.static.flickr.com/1060/1290312024_cf27ded127.jpg\r\n'
p180
aS'http://farm5.static.flickr.com/4010/4564892291_f65c81b117.jpg\r\n'
p181
aS'http://farm4.static.flickr.com/3155/2329254783_dcea3eb38a.jpg\r\n'
p182
aS'http://farm3.static.flickr.com/2351/2054592114_305ea095a1.jpg\r\n'
p183
aS'http://farm5.static.flickr.com/4045/4576464098_ff79f6d620.jpg\r\n'
p184
aS'http://farm4.static.flickr.com/3624/3352200466_d1d695c53f.jpg\r\n'
p185
aS'http://farm5.static.flickr.com/4032/4469517906_7ccc502762.jpg\r\n'
p186
aS'http://farm3.static.flickr.com/2257/2193208058_f6571f45b6.jpg\r\n'
p187
aS'http://farm4.static.flickr.com/3213/2329670980_7a969798a6.jpg\r\n'
p188
aS'http://farm5.static.flickr.com/4067/4713870247_05e67d5b8e.jpg\r\n'
p189
aS'http://farm4.static.flickr.com/3278/2323946922_246eff01a4.jpg\r\n'
p190
aS'http://farm3.static.flickr.com/2280/2329693124_3bf31e5fe4.jpg\r\n'
p191
aS'http://farm3.static.flickr.com/2002/2330366230_60d5aa88e6.jpg\r\n'
p192
aS'http://farm3.static.flickr.com/2136/2327803787_9a851d4821.jpg\r\n'
p193
aS'http://farm3.static.flickr.com/2445/3572350536_dfa159a0a7.jpg\r\n'
p194
aS'http://farm3.static.flickr.com/2351/2328069115_e329187874.jpg\r\n'
p195
aS'http://farm4.static.flickr.com/3049/2329018373_f6751ee12d.jpg\r\n'
p196
aS'http://farm4.static.flickr.com/3113/2329759869_4fa7ae729b.jpg\r\n'
p197
aS'http://farm4.static.flickr.com/3135/2534868316_49bc154f30.jpg\r\n'
p198
aS'http://farm4.static.flickr.com/3253/2361348039_04d4172f73.jpg\r\n'
p199
aS'http://farm3.static.flickr.com/2143/2327676613_b6cd32a693.jpg\r\n'
p200
aS'http://farm3.static.flickr.com/2028/2328884663_f0af0c53ff.jpg\r\n'
p201
aS'http://farm3.static.flickr.com/2255/2325503126_2888301bcd.jpg\r\n'
p202
aS'http://farm5.static.flickr.com/4011/4576398224_c8e0c1b676.jpg\r\n'
p203
aS'http://farm4.static.flickr.com/3186/2326846571_f0e14c6914.jpg\r\n'
p204
aS'http://farm3.static.flickr.com/2209/2327970217_0a17971a59.jpg\r\n'
p205
aS'http://farm3.static.flickr.com/2324/2324295767_c431309fcd.jpg\r\n'
p206
aS'http://farm4.static.flickr.com/3424/3351196547_1eb3fe73e2.jpg\r\n'
p207
aS'http://farm3.static.flickr.com/2204/2328958440_76788e9200.jpg\r\n'
p208
aS'http://farm5.static.flickr.com/4064/4534816170_40a10fcae6.jpg\r\n'
p209
aS'http://farm5.static.flickr.com/4016/4713872467_9f6b27ecb8.jpg\r\n'
p210
aS'http://farm3.static.flickr.com/2129/2358930162_24dd96e38e.jpg\r\n'
p211
aS'http://modaellos.com/wp-content/moda-hombre-otono-invierno-2010-_12.png\r\n'
p212
aS'http://farm1.static.flickr.com/13/182675279_6835ab30f5.jpg\r\n'
p213
aS'http://farm3.static.flickr.com/2353/2324169788_c229f27684.jpg\r\n'
p214
aS'http://farm3.static.flickr.com/2007/2361073215_8605869d4c.jpg\r\n'
p215
aS'http://farm3.static.flickr.com/2339/2330024686_0b2e7f7ccc.jpg\r\n'
p216
aS'http://farm5.static.flickr.com/4126/5025974580_a9416b01dc.jpg\r\n'
p217
aS'http://farm4.static.flickr.com/3069/2325059469_a429094cfd.jpg\r\n'
p218
aS'http://farm3.static.flickr.com/2272/2323948971_5786e5931a.jpg\r\n'
p219
aS'http://farm4.static.flickr.com/3364/4576470844_5c698f6eb9.jpg\r\n'
p220
aS'http://www.chinabidding.com.cn/live_images/6521/12902/6.jpg\r\n'
p221
aS'http://farm3.static.flickr.com/2004/2327879428_654786729f.jpg\r\n'
p222
aS'http://farm3.static.flickr.com/2184/2324680634_03774aa131.jpg\r\n'
p223
aS'http://farm4.static.flickr.com/3285/2761082122_ef92b2f774.jpg\r\n'
p224
aS'http://farm4.static.flickr.com/3291/2360781515_e4b064410e.jpg\r\n'
p225
aS'http://www.meflow.com/images/ME_office_man.jpg\r\n'
p226
aS'http://farm4.static.flickr.com/3332/3216917368_5fdc7ca06f.jpg\r\n'
p227
aS'http://farm3.static.flickr.com/2378/2358967599_82d1d88106.jpg\r\n'
p228
aS'http://farm4.static.flickr.com/3281/2328601100_780d025901.jpg\r\n'
p229
aS'http://farm4.static.flickr.com/3143/2328085992_5f844e5077.jpg\r\n'
p230
aS'http://farm4.static.flickr.com/3275/2328206903_c50dde92a4.jpg\r\n'
p231
aS'http://farm4.static.flickr.com/3043/2328838678_b6346a89c2.jpg\r\n'
p232
aS'http://farm5.static.flickr.com/4036/4337147399_bacc52b5ce.jpg\r\n'
p233
aS'http://farm3.static.flickr.com/2236/2330102126_e36e962543.jpg\r\n'
p234
aS'http://farm3.static.flickr.com/2422/3949770805_484d3a58bd.jpg\r\n'
p235
aS'http://farm5.static.flickr.com/4078/4826153764_e2ef91a327.jpg\r\n'
p236
aS'http://farm4.static.flickr.com/3534/3244459381_febe98a193.jpg\r\n'
p237
aS'http://farm3.static.flickr.com/2185/2327710625_3206b81aa5.jpg\r\n'
p238
aS'http://farm2.static.flickr.com/1026/1289458873_3e2723b83f.jpg\r\n'
p239
aS'http://farm4.static.flickr.com/3129/2323694549_7e48ae0c75.jpg\r\n'
p240
aS'http://farm3.static.flickr.com/2204/2361185941_43e6ba992f.jpg\r\n'
p241
aS'http://farm3.static.flickr.com/2512/3825915750_0a6ae0de50.jpg\r\n'
p242
aS'http://farm2.static.flickr.com/1291/4701527089_3799bac795.jpg\r\n'
p243
aS'http://farm4.static.flickr.com/3129/2633729131_435d891dba.jpg\r\n'
p244
aS'http://farm4.static.flickr.com/3018/2361922788_910d9f5e20.jpg\r\n'
p245
aS'http://farm3.static.flickr.com/2388/2358959967_c4c37c2936.jpg\r\n'
p246
aS'http://farm4.static.flickr.com/3255/2812546942_22708b534e.jpg\r\n'
p247
aS'http://farm3.static.flickr.com/2386/2327620326_98074aed40.jpg\r\n'
p248
aS'http://farm4.static.flickr.com/3225/2325170580_f12ef51e8f.jpg\r\n'
p249
aS'http://farm3.static.flickr.com/2267/2328602864_b4a9ac3484.jpg\r\n'
p250
aS'http://farm4.static.flickr.com/3125/2358852477_078daf6697.jpg\r\n'
p251
aS'http://farm4.static.flickr.com/3280/2324615158_f422f61166.jpg\r\n'
p252
aS'http://farm3.static.flickr.com/2060/2358801874_97bdb0c84a.jpg\r\n'
p253
aS'http://farm4.static.flickr.com/3051/3016248768_16ea78ffcb.jpg\r\n'
p254
aS'http://farm5.static.flickr.com/4050/4704320109_e20e1e25a7.jpg\r\n'
p255
aS'http://farm2.static.flickr.com/1300/4702161198_322a481391.jpg\r\n'
p256
aS'http://farm1.static.flickr.com/88/237498756_b61525196e.jpg\r\n'
p257
aS'http://farm4.static.flickr.com/3003/2329747274_243426a1bb.jpg\r\n'
p258
aS'http://farm4.static.flickr.com/3058/2425853037_0de39f6dfc.jpg\r\n'
p259
aS'http://farm3.static.flickr.com/2276/2324649865_5e8c7c7d46.jpg\r\n'
p260
aS'http://farm4.static.flickr.com/3190/2324283881_7827473257.jpg\r\n'
p261
aS'http://farm3.static.flickr.com/2192/2325788208_4c770118dd.jpg\r\n'
p262
aS'http://farm4.static.flickr.com/3215/2924114874_0a3f3670c4.jpg\r\n'
p263
aS'http://farm4.static.flickr.com/3565/3438290052_c62435ec02.jpg\r\n'
p264
aS'http://farm4.static.flickr.com/3455/3381481007_d836af428b.jpg\r\n'
p265
aS'http://farm3.static.flickr.com/2338/2329230893_4761dd8944.jpg\r\n'
p266
aS'http://farm3.static.flickr.com/2173/2633731781_f27a4e0b0d.jpg\r\n'
p267
aS'http://farm4.static.flickr.com/3506/3317999243_17555c7174.jpg\r\n'
p268
aS'http://farm3.static.flickr.com/2123/2361335497_4fc81d4b93.jpg\r\n'
p269
aS'http://farm3.static.flickr.com/2098/2323850397_00f383f991.jpg\r\n'
p270
aS'http://farm4.static.flickr.com/3164/2329704077_12498452c6.jpg\r\n'
p271
aS'http://farm3.static.flickr.com/2150/2330582700_d7afec4f52.jpg\r\n'
p272
aS'http://farm3.static.flickr.com/2054/2328814655_747a3efb9c.jpg\r\n'
p273
aS'http://farm3.static.flickr.com/2048/2328672524_6ecb23763c.jpg\r\n'
p274
aS'http://farm3.static.flickr.com/2249/2200221134_9975146bd7.jpg\r\n'
p275
aS'http://farm3.static.flickr.com/2393/2511598122_1dcb5148ae.jpg\r\n'
p276
aS'http://farm3.static.flickr.com/2192/2327973441_5bba72ddab.jpg\r\n'
p277
aS'http://farm5.static.flickr.com/4026/4510582655_92a8b8544a.jpg\r\n'
p278
aS'http://farm4.static.flickr.com/3226/2325207956_fc86622c3e.jpg\r\n'
p279
aS'http://farm1.static.flickr.com/106/304989261_41e094f0a9.jpg\r\n'
p280
aS'http://farm1.static.flickr.com/47/109083095_367b0ba6c6.jpg\r\n'
p281
aS'http://farm3.static.flickr.com/2216/1559090294_3052601053.jpg\r\n'
p282
aS'http://farm3.static.flickr.com/2288/2329437620_69f483d2e9.jpg\r\n'
p283
aS'http://farm4.static.flickr.com/3061/2329186529_a90ae7c04a.jpg\r\n'
p284
aS'http://farm1.static.flickr.com/26/88879869_f46e6dbbe4.jpg\r\n'
p285
aS'http://farm3.static.flickr.com/2023/2244826082_203b402072.jpg\r\n'
p286
aS'http://farm1.static.flickr.com/154/384890891_badab8bd13.jpg\r\n'
p287
aS'http://farm3.static.flickr.com/2193/2330510026_879d8f98d6.jpg\r\n'
p288
aS'http://farm4.static.flickr.com/3177/2329386429_c65356348c.jpg\r\n'
p289
aS'http://farm1.static.flickr.com/34/70836362_1bb47a5a95.jpg\r\n'
p290
aS'http://farm4.static.flickr.com/3412/3553724565_83b051f3de.jpg\r\n'
p291
aS'http://farm3.static.flickr.com/2575/3950548204_e32d4b4316.jpg\r\n'
p292
aS'http://farm4.static.flickr.com/3456/3351210095_5033014631.jpg\r\n'
p293
aS'http://farm4.static.flickr.com/3192/2327674433_9e39803322.jpg\r\n'
p294
aS'http://farm5.static.flickr.com/4084/5041059313_5edfeaff91.jpg\r\n'
p295
aS'http://farm2.static.flickr.com/1017/532226794_7297745fe5.jpg\r\n'
p296
aS'http://farm3.static.flickr.com/2097/2324367225_684573f51d.jpg\r\n'
p297
aS'http://farm4.static.flickr.com/3105/2327257899_c74dd690cb.jpg\r\n'
p298
aS'http://farm5.static.flickr.com/4151/5041058835_beda6b0c8d.jpg\r\n'
p299
aS'http://farm4.static.flickr.com/3129/2328696928_66301cd162.jpg\r\n'
p300
aS'http://farm4.static.flickr.com/3111/2328471948_762f97b63c.jpg\r\n'
p301
aS'http://farm5.static.flickr.com/4074/4825084835_d2858139c6.jpg\r\n'
p302
aS'http://farm4.static.flickr.com/3140/2329124355_4ec5dc6049.jpg\r\n'
p303
aS'http://farm1.static.flickr.com/76/152880651_6f2d655ebf.jpg\r\n'
p304
aS'http://farm1.static.flickr.com/190/512925427_941b31cea0.jpg\r\n'
p305
aS'http://farm3.static.flickr.com/2077/2324161276_d456bb37d6.jpg\r\n'
p306
aS'http://farm3.static.flickr.com/2410/2327698209_719a130c3f.jpg\r\n'
p307
aS'http://farm4.static.flickr.com/3147/2549234142_6db97470d8.jpg\r\n'
p308
aS'http://farm4.static.flickr.com/3618/3313270536_3a8ac4bf78.jpg\r\n'
p309
aS'http://farm3.static.flickr.com/2576/3949770937_b5acb187a5.jpg\r\n'
p310
aS'http://farm4.static.flickr.com/3279/2329648018_6c6aed3fc3.jpg\r\n'
p311
aS'http://farm4.static.flickr.com/3267/2329593497_3c4c856cf2.jpg\r\n'
p312
aS'http://farm3.static.flickr.com/2690/4230757535_4b4e2be7c2.jpg\r\n'
p313
aS'http://farm3.static.flickr.com/2454/3950551224_09c04a3f42.jpg\r\n'
p314
aS'http://farm1.static.flickr.com/142/337404969_48efeafb72.jpg\r\n'
p315
aS'http://farm3.static.flickr.com/2259/2330165974_0676d6febb.jpg\r\n'
p316
aS'http://farm1.static.flickr.com/179/473391238_16a5ade753.jpg\r\n'
p317
aS'http://farm4.static.flickr.com/3453/3198119861_c9022a14d5.jpg\r\n'
p318
aS'http://farm3.static.flickr.com/2337/2325652346_8768a31794.jpg\r\n'
p319
aS'http://farm4.static.flickr.com/3285/2361299493_0b79165228.jpg\r\n'
p320
aS'http://farm4.static.flickr.com/3002/3016005908_ba5683e1e1.jpg\r\n'
p321
aS'http://farm4.static.flickr.com/3207/2330479682_4ac67691ba.jpg\r\n'
p322
aS'http://farm1.static.flickr.com/243/523871886_0f1084ab1e.jpg\r\n'
p323
aS'http://farm4.static.flickr.com/3099/3179594116_797d6303bd.jpg\r\n'
p324
aS'http://farm3.static.flickr.com/2407/2324094212_05d85991f7.jpg\r\n'
p325
aS'http://farm5.static.flickr.com/4141/4820440130_339be9ff8b.jpg\r\n'
p326
aS'http://farm2.static.flickr.com/1180/798274697_7c90ecf708.jpg\r\n'
p327
aS'http://farm3.static.flickr.com/2754/4298032532_71c22860c9.jpg\r\n'
p328
aS'http://farm4.static.flickr.com/3002/3016005068_9c59c1bb55.jpg\r\n'
p329
aS'http://farm5.static.flickr.com/4076/4819818425_14999ed5d5.jpg\r\n'
p330
aS'http://farm3.static.flickr.com/2219/2329898764_22d5563bc1.jpg\r\n'
p331
aS'http://farm4.static.flickr.com/3080/2555054320_f0bdc4d3cc.jpg\r\n'
p332
aS'http://farm3.static.flickr.com/2149/2388890827_7cc0ef6ebb.jpg\r\n'
p333
aS'http://farm3.static.flickr.com/2003/2324291873_75502dd040.jpg\r\n'
p334
aS'http://farm4.static.flickr.com/3272/2324269693_ef49ec6dfc.jpg\r\n'
p335
aS'http://farm3.static.flickr.com/2405/2327975039_ec63186de2.jpg\r\n'
p336
aS'http://farm4.static.flickr.com/3547/3431707790_730b1e2cf1.jpg\r\n'
p337
aS'http://farm3.static.flickr.com/2354/2322913377_b193f5fa22.jpg\r\n'
p338
aS'http://farm4.static.flickr.com/3012/2325945614_45d2a96e5d.jpg\r\n'
p339
aS'http://farm2.static.flickr.com/1253/4725625441_fbf4b4df0b.jpg\r\n'
p340
aS'http://farm4.static.flickr.com/3472/3224872477_d46daf8c6a.jpg\r\n'
p341
aS'http://farm3.static.flickr.com/2023/2377492394_d2d3379f6f.jpg\r\n'
p342
aS'http://farm3.static.flickr.com/2159/2328173497_2990a55666.jpg\r\n'
p343
aS'http://farm3.static.flickr.com/2405/2358012007_1db9934182.jpg\r\n'
p344
aS'http://farm3.static.flickr.com/2204/2324976360_03c4f854ba.jpg\r\n'
p345
aS'http://farm4.static.flickr.com/3210/2327600294_181d3702d7.jpg\r\n'
p346
aS'http://farm3.static.flickr.com/2123/2361679522_0fba69d7e2.jpg\r\n'
p347
aS'http://farm4.static.flickr.com/3241/3040671088_b37f5d5fee.jpg\r\n'
p348
aS'http://farm4.static.flickr.com/3217/2778747567_2a2ef85d82.jpg\r\n'
p349
aS'http://farm3.static.flickr.com/2398/2325659922_23a73baf69.jpg\r\n'
p350
aS'http://farm4.static.flickr.com/3580/3493489175_d9bfcbb52f.jpg\r\n'
p351
aS'http://farm1.static.flickr.com/42/86625873_85552f1e35.jpg\r\n'
p352
aS'http://farm3.static.flickr.com/2038/2324900741_daf5efac2f.jpg\r\n'
p353
aS'http://farm4.static.flickr.com/3046/2325693508_e88c059535.jpg\r\n'
p354
aS'http://farm3.static.flickr.com/2276/2328856346_d6cda7e87a.jpg\r\n'
p355
aS'http://farm4.static.flickr.com/3213/2328221099_c3c9b7a5bc.jpg\r\n'
p356
aS'http://farm4.static.flickr.com/3148/2330230982_2176c65a94.jpg\r\n'
p357
aS'http://farm3.static.flickr.com/2071/1821756999_f1e041a498.jpg\r\n'
p358
aS'http://farm4.static.flickr.com/3087/2328713190_82bd9db3d8.jpg\r\n'
p359
aS'http://farm3.static.flickr.com/2363/2325183166_d895e7dac8.jpg\r\n'
p360
aS'http://farm5.static.flickr.com/4135/4786176837_0fd70d3520.jpg\r\n'
p361
aS'http://farm3.static.flickr.com/2521/3797579633_318e58a210.jpg\r\n'
p362
aS'http://farm4.static.flickr.com/3611/3351393605_97abf1b99d.jpg\r\n'
p363
aS'http://farm3.static.flickr.com/2549/4534177539_5004829263.jpg\r\n'
p364
aS'http://farm5.static.flickr.com/4058/4543459279_c4ef321dc2.jpg\r\n'
p365
aS'http://farm3.static.flickr.com/2073/2327617120_b65cae4565.jpg\r\n'
p366
aS'http://farm1.static.flickr.com/63/162157018_5b622ec933.jpg\r\n'
p367
aS'http://farm4.static.flickr.com/3600/3381480763_e2668070f1.jpg\r\n'
p368
aS'http://farm4.static.flickr.com/3093/2329994238_ed5359bd69.jpg\r\n'
p369
aS'http://farm4.static.flickr.com/3128/2327962673_24d73171ab.jpg\r\n'
p370
aS'http://farm3.static.flickr.com/2208/2327774019_4eb7183b96.jpg\r\n'
p371
aS'http://farm4.static.flickr.com/3190/3037446953_f088ffa30d.jpg\r\n'
p372
aS'http://farm2.static.flickr.com/1025/575053267_65fed80efd.jpg\r\n'
p373
aS'http://farm5.static.flickr.com/4050/4390158616_53ce01a88e.jpg\r\n'
p374
aS'http://farm1.static.flickr.com/26/163813677_5fa3ccb7c2.jpg\r\n'
p375
aS'http://farm3.static.flickr.com/2114/2324493513_145f9cbf71.jpg\r\n'
p376
aS'http://farm1.static.flickr.com/86/230239689_a677ca009a.jpg\r\n'
p377
aS'http://farm5.static.flickr.com/4034/4543451287_7f9bd7942d.jpg\r\n'
p378
aS'http://farm5.static.flickr.com/4059/4543455483_227afc8d7f.jpg\r\n'
p379
aS'http://farm3.static.flickr.com/2047/2329413349_68a26ee0fa.jpg\r\n'
p380
aS'http://farm3.static.flickr.com/2225/2328180317_6bea9867aa.jpg\r\n'
p381
aS'http://farm3.static.flickr.com/2072/2328817439_f839da59e4.jpg\r\n'
p382
aS'http://farm3.static.flickr.com/2079/2362052064_c17cd0cb0d.jpg\r\n'
p383
aS'http://farm4.static.flickr.com/3449/3814960682_972098770a.jpg\r\n'
p384
aS'http://farm5.static.flickr.com/4100/4735620514_297307483f.jpg\r\n'
p385
aS'http://farm5.static.flickr.com/4071/4567927974_73221b5875.jpg\r\n'
p386
aS'http://farm5.static.flickr.com/4061/4534181617_01cd100afb.jpg\r\n'
p387
aS'http://farm3.static.flickr.com/2635/3950552894_dccf7c62df.jpg\r\n'
p388
aS'http://farm3.static.flickr.com/2471/3950550356_e8c2b740b5.jpg\r\n'
p389
aS'http://farm3.static.flickr.com/2445/3878542817_9f892268bc.jpg\r\n'
p390
aS'http://farm4.static.flickr.com/3505/3950550176_c2eda47d0a.jpg\r\n'
p391
aS'http://farm3.static.flickr.com/2330/2329011290_fdc1de7674.jpg\r\n'
p392
aS'http://farm4.static.flickr.com/3206/2324542813_714a4d0909.jpg\r\n'
p393
aS'http://farm3.static.flickr.com/2021/2362041558_9c15cf416b.jpg\r\n'
p394
aS'http://farm3.static.flickr.com/2084/2361763984_3df85352bd.jpg\r\n'
p395
aS'http://farm4.static.flickr.com/3642/3351284075_951a7b29d2.jpg\r\n'
p396
aS'http://farm4.static.flickr.com/3137/2327683333_f43db0245e.jpg\r\n'
p397
aS'http://farm4.static.flickr.com/3211/2373733273_9b3d76f7f3.jpg\r\n'
p398
aS'http://farm3.static.flickr.com/2366/2328877250_e16b62d89d.jpg\r\n'
p399
aS'http://farm3.static.flickr.com/2380/2324676487_871aef424a.jpg\r\n'
p400
aS'http://www.caseresources.org/whatcanido/images/man_000.jpg\r\n'
p401
aS'http://farm3.static.flickr.com/2292/2325536996_cfe1fb0a43.jpg\r\n'
p402
aS'http://farm5.static.flickr.com/4154/5064621819_aa5d56617b.jpg\r\n'
p403
aS'http://farm5.static.flickr.com/4050/4591198974_148af22dfc.jpg\r\n'
p404
aS'http://farm3.static.flickr.com/2583/3880754445_d44b6e1530.jpg\r\n'
p405
aS'http://farm3.static.flickr.com/2058/2330580380_ac9e87aab3.jpg\r\n'
p406
aS'http://farm5.static.flickr.com/4093/4825543919_38335bcf35.jpg\r\n'
p407
aS'http://farm3.static.flickr.com/2223/2059950905_3625435f60.jpg\r\n'
p408
aS'http://farm5.static.flickr.com/4142/4805740025_2785bb5008.jpg\r\n'
p409
aS'http://farm4.static.flickr.com/3645/3430918331_1499b4f6a7.jpg\r\n'
p410
aS'http://farm3.static.flickr.com/2222/2323966608_6de21c47c6.jpg\r\n'
p411
aS'http://farm3.static.flickr.com/2380/2361201891_ef8786aaa2.jpg\r\n'
p412
aS'http://farm4.static.flickr.com/3379/3423478537_ec208416fd.jpg\r\n'
p413
aS'http://farm4.static.flickr.com/3082/2329776425_bd20e3c286.jpg\r\n'
p414
aS'http://farm3.static.flickr.com/2458/3821350596_be3e32c744.jpg\r\n'
p415
aS'http://farm3.static.flickr.com/2112/2329088637_ebef6a8695.jpg\r\n'
p416
aS'http://farm4.static.flickr.com/3418/3356547406_8637373f5f.jpg\r\n'
p417
aS'http://farm1.static.flickr.com/67/174721153_47e2d19eca.jpg\r\n'
p418
aS'http://farm3.static.flickr.com/2059/2514640392_bbe2317dc9.jpg\r\n'
p419
aS'http://farm2.static.flickr.com/1378/4725430953_0862afb1ed.jpg\r\n'
p420
aS'http://farm3.static.flickr.com/2292/2360798264_740ca4b7ee.jpg\r\n'
p421
aS'http://farm4.static.flickr.com/3257/2323295925_21fe0f9974.jpg\r\n'
p422
aS'http://farm3.static.flickr.com/2192/2328906450_81fd9d2d8c.jpg\r\n'
p423
aS'http://farm1.static.flickr.com/91/243424771_7eda6ac41f.jpg\r\n'
p424
aS'http://farm3.static.flickr.com/2459/3791882499_ff41e780ef.jpg\r\n'
p425
aS'http://farm1.static.flickr.com/4/8739135_5dd30264f3.jpg\r\n'
p426
aS'http://farm5.static.flickr.com/4025/4378935640_e1a54a785d.jpg\r\n'
p427
aS'http://farm1.static.flickr.com/215/492608558_bd2f9baa54.jpg\r\n'
p428
aS'http://farm3.static.flickr.com/2406/2329725254_45b25a4491.jpg\r\n'
p429
aS'http://farm3.static.flickr.com/2258/2326822709_453704e3e7.jpg\r\n'
p430
aS'http://farm5.static.flickr.com/4048/4381478016_7dd04a67bc.jpg\r\n'
p431
aS'http://farm5.static.flickr.com/4041/4710410260_2420167f03.jpg\r\n'
p432
aS'http://farm4.static.flickr.com/3044/2326890733_21272be5a1.jpg\r\n'
p433
aS'http://farm2.static.flickr.com/1250/1066044384_efe83e788f.jpg\r\n'
p434
aS'http://farm4.static.flickr.com/3096/2329989152_2469d6a174.jpg\r\n'
p435
aS'http://farm3.static.flickr.com/2791/4186527151_85eb4852ea.jpg\r\n'
p436
aS'http://farm3.static.flickr.com/2293/2328173086_f83db41d46.jpg\r\n'
p437
aS'http://farm3.static.flickr.com/2060/2323669160_8ee2d010d7.jpg\r\n'
p438
aS'http://farm1.static.flickr.com/175/430499550_3c2e5710b2.jpg\r\n'
p439
aS'http://farm4.static.flickr.com/3003/2327905820_de7a0af371.jpg\r\n'
p440
aS'http://farm4.static.flickr.com/3202/3020427846_1ef2a9248c.jpg\r\n'
p441
aS'http://farm3.static.flickr.com/2221/2324115700_b97b8db2eb.jpg\r\n'
p442
aS'http://farm5.static.flickr.com/4032/4652990882_36c43d25d6.jpg\r\n'
p443
aS'http://farm4.static.flickr.com/3277/2851273854_22b262c520.jpg\r\n'
p444
aS'http://farm3.static.flickr.com/2125/2323843670_c48bc0d231.jpg\r\n'
p445
aS'http://farm3.static.flickr.com/2271/2328853354_af2931f7cc.jpg\r\n'
p446
aS'http://farm3.static.flickr.com/2010/2329569681_1a249dc704.jpg\r\n'
p447
aS'http://farm4.static.flickr.com/3286/3031821419_b4533ee65b.jpg\r\n'
p448
aS'http://farm3.static.flickr.com/2232/2376051294_bf21b7440f.jpg\r\n'
p449
aS'http://farm4.static.flickr.com/3106/3554529426_bf354bfe19.jpg\r\n'
p450
aS'http://farm3.static.flickr.com/2055/2330630048_68803d2770.jpg\r\n'
p451
aS'http://farm5.static.flickr.com/4045/4544087500_014b88696a.jpg\r\n'
p452
aS'http://farm4.static.flickr.com/3026/2388713650_aa13bd30a6.jpg\r\n'
p453
aS'http://farm4.static.flickr.com/3170/3016005252_fc0f3bdb18.jpg\r\n'
p454
aS'http://farm3.static.flickr.com/2048/2329436683_0cdf559dab.jpg\r\n'
p455
aS'http://farm3.static.flickr.com/2385/2326983743_72771b7c3d.jpg\r\n'
p456
aS'http://farm3.static.flickr.com/2566/3949769235_5755df2625.jpg\r\n'
p457
aS'http://farm4.static.flickr.com/3216/2361323987_07684530ce.jpg\r\n'
p458
aS'http://farm4.static.flickr.com/3399/3291446813_e65a8f6e56.jpg\r\n'
p459
aS'http://farm3.static.flickr.com/2184/2358889213_33c759502b.jpg\r\n'
p460
aS'http://farm2.static.flickr.com/1282/1363766986_ded1acc234.jpg\r\n'
p461
aS'http://farm2.static.flickr.com/1099/1012404668_1635d416e0.jpg\r\n'
p462
aS'http://farm3.static.flickr.com/2218/2324798583_060d63fcd8.jpg\r\n'
p463
aS'http://farm4.static.flickr.com/3188/2329903986_ca50066cd9.jpg\r\n'
p464
aS'http://farm3.static.flickr.com/2084/2329219785_f52b87df50.jpg\r\n'
p465
aS'http://farm5.static.flickr.com/4048/4543453077_c861d0cf48.jpg\r\n'
p466
aS'http://farm5.static.flickr.com/4045/4534816586_50e1e1360e.jpg\r\n'
p467
aS'http://farm3.static.flickr.com/2209/2325204364_33693110c2.jpg\r\n'
p468
aS'http://static.flickr.com/3400/3575003320_373a47250a.jpg\r\n'
p469
aS'http://farm3.static.flickr.com/2061/2322863905_0e1b6e0dcb.jpg\r\n'
p470
aS'http://farm4.static.flickr.com/3151/2599007058_d3356d3d46.jpg\r\n'
p471
aS'http://farm3.static.flickr.com/2160/2329800053_c7e638df60.jpg\r\n'
p472
aS'http://farm3.static.flickr.com/2360/2049043988_6a93763c2f.jpg\r\n'
p473
aS'http://farm4.static.flickr.com/3114/3224842857_8529443084.jpg\r\n'
p474
aS'http://farm3.static.flickr.com/2511/4230757533_fa94a85e36.jpg\r\n'
p475
aS'http://farm3.static.flickr.com/2150/2324258971_ba3ee18aae.jpg\r\n'
p476
aS'http://farm3.static.flickr.com/2193/2358476689_861cbba46e.jpg\r\n'
p477
aS'http://farm3.static.flickr.com/2776/4265092119_eb8f1c821e.jpg\r\n'
p478
aS'http://farm4.static.flickr.com/3199/2329642398_f5f7945d87.jpg\r\n'
p479
aS'http://farm4.static.flickr.com/3275/2559731945_821b81d959.jpg\r\n'
p480
aS'http://farm5.static.flickr.com/4074/4820439686_7d8657f051.jpg\r\n'
p481
aS'http://farm4.static.flickr.com/3166/2994374118_ee6ccf639e.jpg\r\n'
p482
aS'http://farm4.static.flickr.com/3128/2373736295_37d4509514.jpg\r\n'
p483
aS'http://farm3.static.flickr.com/2125/2327105565_c98729577f.jpg\r\n'
p484
aS'http://farm5.static.flickr.com/4093/4826151228_dcb4c7f13d.jpg\r\n'
p485
aS'http://farm5.static.flickr.com/4069/4652369867_582da85413.jpg\r\n'
p486
aS'http://farm3.static.flickr.com/2309/2361851758_bd0513ddc1.jpg\r\n'
p487
aS'http://farm4.static.flickr.com/3182/2685200123_580aeb502d.jpg\r\n'
p488
aS'http://farm4.static.flickr.com/3152/2598629775_7a938a6be1.jpg\r\n'
p489
aS'http://farm4.static.flickr.com/3138/3056517529_d2e2a027c0.jpg\r\n'
p490
aS'http://farm3.static.flickr.com/2638/3950552572_6f5114cebf.jpg\r\n'
p491
aS'http://farm2.static.flickr.com/1405/1183533525_6af1d7667a.jpg\r\n'
p492
aS'http://farm5.static.flickr.com/4021/4350075891_c954d5eec1.jpg\r\n'
p493
aS'http://farm5.static.flickr.com/4098/5041681036_c4db562613.jpg\r\n'
p494
aS'http://farm1.static.flickr.com/98/229033407_bda1924df5.jpg\r\n'
p495
aS'http://farm1.static.flickr.com/6/8870393_8ce99578ef.jpg\r\n'
p496
aS'http://farm4.static.flickr.com/3297/3616642822_b87ec1b666.jpg\r\n'
p497
aS'http://farm3.static.flickr.com/2179/2326840947_6c62543321.jpg\r\n'
p498
aS'http://farm4.static.flickr.com/3092/2789434436_a3d1b572b3.jpg\r\n'
p499
aS'http://farm3.static.flickr.com/2747/4353823670_66d9dc8be7.jpg\r\n'
p500
aS'http://farm4.static.flickr.com/3232/2375350774_2219ddf82d.jpg\r\n'
p501
aS'http://farm3.static.flickr.com/2007/2329937352_7aacebbb1c.jpg\r\n'
p502
aS'http://farm1.static.flickr.com/217/513627200_60767c8699.jpg\r\n'
p503
aS'http://farm5.static.flickr.com/4061/4458636052_01c961070a.jpg\r\n'
p504
aS'http://farm4.static.flickr.com/3544/3431471370_849286eca7.jpg\r\n'
p505
aS'http://farm4.static.flickr.com/3034/2324206077_4467467c77.jpg\r\n'
p506
aS'http://farm4.static.flickr.com/3477/3695407273_9737d04aa7.jpg\r\n'
p507
aS'http://farm3.static.flickr.com/2233/2324676986_5ee2192545.jpg\r\n'
p508
aS'http://farm3.static.flickr.com/2053/2359682716_490d9e54a4.jpg\r\n'
p509
aS'http://farm1.static.flickr.com/3/3049996_721fd6bb62.jpg\r\n'
p510
aS'http://farm1.static.flickr.com/38/106622635_a794ce75e4.jpg\r\n'
p511
aS'http://farm4.static.flickr.com/3394/4626378341_f186831b80.jpg\r\n'
p512
aS'http://farm4.static.flickr.com/3263/2326875235_9f2a83bb79.jpg\r\n'
p513
aS'http://farm5.static.flickr.com/4031/4350829604_90f9db804d.jpg\r\n'
p514
aS'http://farm3.static.flickr.com/2185/2323853881_083c8ae9d0.jpg\r\n'
p515
aS'http://farm5.static.flickr.com/4037/4419515893_514f99bde5.jpg\r\n'
p516
aS'http://farm4.static.flickr.com/3004/2329056845_74685f7f9d.jpg\r\n'
p517
aS'http://farm3.static.flickr.com/2090/2329720497_0b3cf3168c.jpg\r\n'
p518
aS'http://farm3.static.flickr.com/2211/2327247525_04a69a32b0.jpg\r\n'
p519
aS'http://farm3.static.flickr.com/2326/2328862074_d70df83b49.jpg\r\n'
p520
aS'http://farm4.static.flickr.com/3017/2361107643_123b1288de.jpg\r\n'
p521
aS'http://farm2.static.flickr.com/1307/4704962490_5ed3a738b8.jpg\r\n'
p522
aS'http://farm3.static.flickr.com/2425/4297545252_09f26a584e.jpg\r\n'
p523
aS'http://farm4.static.flickr.com/3137/2402881898_9241f0b91e.jpg\r\n'
p524
aS'http://farm4.static.flickr.com/3250/2324653357_3169c2df08.jpg\r\n'
p525
aS'http://farm5.static.flickr.com/4141/4737770156_56375a5ee2.jpg\r\n'
p526
aS'http://farm4.static.flickr.com/3107/2328118627_bc665ab998.jpg\r\n'
p527
aS'http://farm4.static.flickr.com/3599/3351152831_c1e843654a.jpg\r\n'
p528
aS'http://farm3.static.flickr.com/2083/2323929076_dbff193997.jpg\r\n'
p529
aS'http://farm2.static.flickr.com/1004/1161524068_c8afd454de.jpg\r\n'
p530
aS'http://farm3.static.flickr.com/2100/2113049484_9d06671223.jpg\r\n'
p531
aS'http://farm5.static.flickr.com/4052/4591196202_1ca44944c4.jpg\r\n'
p532
aS'http://2.bp.blogspot.com/_--JUz2ETnj0/SXCyAJ_HrPI/AAAAAAAAB90/mhqBvPR-c4g/s400/el+hombre+yummi!1.jpg\r\n'
p533
aS'http://farm3.static.flickr.com/2588/3949774193_7370987552.jpg\r\n'
p534
aS'http://farm3.static.flickr.com/2317/1918779928_23d2c8092e.jpg\r\n'
p535
aS'http://farm4.static.flickr.com/3073/2328275968_a75a8483aa.jpg\r\n'
p536
aS'http://farm4.static.flickr.com/3148/3027222017_88172c2498.jpg\r\n'
p537
aS'http://farm4.static.flickr.com/3215/2330220818_fc2f452ca7.jpg\r\n'
p538
aS'http://farm3.static.flickr.com/2187/2328128663_120bfbc6c1.jpg\r\n'
p539
aS'http://farm3.static.flickr.com/2620/3950547574_e0f6f167ee.jpg\r\n'
p540
aS'http://farm3.static.flickr.com/2189/1906718133_d6897ef8f8.jpg\r\n'
p541
aS'http://farm3.static.flickr.com/2757/4444390045_39d7142aab.jpg\r\n'
p542
aS'http://farm4.static.flickr.com/3211/2652386082_3e0169d906.jpg\r\n'
p543
aS'http://farm3.static.flickr.com/2459/3636106113_f3311914c0.jpg\r\n'
p544
aS'http://farm1.static.flickr.com/117/309609355_ff61dead4b.jpg\r\n'
p545
aS'http://farm4.static.flickr.com/3043/2328182958_a8b8ab315a.jpg\r\n'
p546
aS'http://farm1.static.flickr.com/230/513237831_1f4ae8cc56.jpg\r\n'
p547
aS'http://farm3.static.flickr.com/2698/4240691888_059617ce67.jpg\r\n'
p548
aS'http://farm3.static.flickr.com/2789/4290796072_986c1dc324.jpg\r\n'
p549
aS'http://farm5.static.flickr.com/4041/4701527573_ea3b6d32a5.jpg\r\n'
p550
aS'http://farm4.static.flickr.com/3220/2327659676_82a99f7889.jpg\r\n'
p551
aS'http://farm4.static.flickr.com/3442/3922073177_d005861307.jpg\r\n'
p552
aS'http://farm1.static.flickr.com/29/63127379_f5ac0b046e.jpg\r\n'
p553
aS'http://farm2.static.flickr.com/1422/1420636498_6a9aa73c6c.jpg\r\n'
p554
aS'http://farm3.static.flickr.com/2051/2324143864_f2511eb669.jpg\r\n'
p555
aS'http://farm4.static.flickr.com/3269/2324778893_a74eea577e.jpg\r\n'
p556
aS'http://farm5.static.flickr.com/4066/4398030862_de7b7d1741.jpg\r\n'
p557
aS'http://farm4.static.flickr.com/3009/2298373913_60af9d5d04.jpg\r\n'
p558
aS'http://farm4.static.flickr.com/3435/3753639807_c66e9bb93b.jpg\r\n'
p559
aS'http://farm1.static.flickr.com/67/161186822_5f7bf9a972.jpg\r\n'
p560
aS'http://farm3.static.flickr.com/2154/2323040299_81653ff068.jpg\r\n'
p561
aS'http://farm3.static.flickr.com/2118/2358419999_a5a2a73ab5.jpg\r\n'
p562
aS'http://farm1.static.flickr.com/138/390675160_8330928a86.jpg\r\n'
p563
aS'http://farm4.static.flickr.com/3560/3392690703_7b062569cf.jpg\r\n'
p564
aS'http://farm5.static.flickr.com/4023/4543452445_5568743051.jpg\r\n'
p565
aS'http://farm3.static.flickr.com/2709/4017761993_3bb9718791.jpg\r\n'
p566
aS'http://farm3.static.flickr.com/2704/4186528089_05acc4a4aa.jpg\r\n'
p567
aS'http://eioc.pnl.gov/images/man_woman_Arevaslide.jpg\r\n'
p568
aS'http://farm3.static.flickr.com/2259/2326852553_8f238eca27.jpg\r\n'
p569
aS'http://farm3.static.flickr.com/2014/2328024292_bccf2d408b.jpg\r\n'
p570
aS'http://farm3.static.flickr.com/2023/2359356574_df655a8ddf.jpg\r\n'
p571
aS'http://farm3.static.flickr.com/2556/3950548472_dfff115a93.jpg\r\n'
p572
aS'http://farm3.static.flickr.com/2475/3653352859_533dd0d9e0.jpg\r\n'
p573
aS'http://farm3.static.flickr.com/2084/2375215517_04bcf73719.jpg\r\n'
p574
aS'http://farm3.static.flickr.com/2223/2323850750_6f407dda22.jpg\r\n'
p575
aS'http://farm3.static.flickr.com/2072/2324908495_7f6c107a36.jpg\r\n'
p576
aS'http://farm3.static.flickr.com/2355/2329862382_d7e0750650.jpg\r\n'
p577
aS'http://farm1.static.flickr.com/44/173440126_84dd713287.jpg\r\n'
p578
aS'http://farm4.static.flickr.com/3188/2325891202_efa499cc05.jpg\r\n'
p579
aS'http://farm4.static.flickr.com/3126/2329797391_bfa683f8bf.jpg\r\n'
p580
aS'http://farm3.static.flickr.com/2298/2328072283_2e79a452a3.jpg\r\n'
p581
aS'http://farm1.static.flickr.com/5/7628293_79733ec3af.jpg\r\n'
p582
aS'http://farm4.static.flickr.com/3303/3438457408_49e860b5a6.jpg\r\n'
p583
aS'http://farm3.static.flickr.com/2604/3950549948_84d28783ba.jpg\r\n'
p584
aS'http://farm5.static.flickr.com/4072/4246206234_31561958bd.jpg\r\n'
p585
aS'http://farm4.static.flickr.com/3088/2328057289_d9b4d550f8.jpg\r\n'
p586
aS'http://farm3.static.flickr.com/2071/2324621833_9fe5fce206.jpg\r\n'
p587
aS'http://farm1.static.flickr.com/165/437682644_90eb09c7c7.jpg\r\n'
p588
aS'http://farm4.static.flickr.com/3041/2324984719_304dc83575.jpg\r\n'
p589
aS'http://farm4.static.flickr.com/3560/3445621119_dbcc223098.jpg\r\n'
p590
aS'http://farm3.static.flickr.com/2403/2325404878_c81a8999d7.jpg\r\n'
p591
aS'http://farm4.static.flickr.com/3073/2390610586_7f66295a13.jpg\r\n'
p592
aS'http://farm4.static.flickr.com/3546/3492177905_ce507d1356.jpg\r\n'
p593
aS'http://farm4.static.flickr.com/3493/3949768443_5697e46e2c.jpg\r\n'
p594
aS'http://farm3.static.flickr.com/2200/2361339609_6b4d37d817.jpg\r\n'
p595
aS'http://farm5.static.flickr.com/4021/4626389457_9180f64912.jpg\r\n'
p596
aS'http://farm5.static.flickr.com/4120/4952543829_94e4f994ac.jpg\r\n'
p597
aS'http://farm4.static.flickr.com/3008/2950743323_aa615698a1.jpg\r\n'
p598
aS'http://farm3.static.flickr.com/2713/4016655336_825f74471c.jpg\r\n'
p599
aS'http://farm4.static.flickr.com/3348/3486918756_bf93135726.jpg\r\n'
p600
aS'http://farm4.static.flickr.com/3231/2328787215_11c256451d.jpg\r\n'
p601
aS'http://farm5.static.flickr.com/4008/4591198894_36cb688ed0.jpg\r\n'
p602
aS'http://farm3.static.flickr.com/2054/2248715108_8c3f81a145.jpg\r\n'
p603
aS'http://farm3.static.flickr.com/2150/2323134033_42a5b14c7f.jpg\r\n'
p604
aS'http://farm3.static.flickr.com/2425/4015773057_aabd893fa7.jpg\r\n'
p605
aS'http://farm3.static.flickr.com/2343/2328462762_f7de82d76d.jpg\r\n'
p606
aS'http://farm3.static.flickr.com/2466/3949768215_8a6ff513c6.jpg\r\n'
p607
aS'http://farm3.static.flickr.com/2773/4534810562_281f149f94.jpg\r\n'
p608
aS'http://farm3.static.flickr.com/2125/2329755004_c0e972bb54.jpg\r\n'
p609
aS'http://farm3.static.flickr.com/2017/2327915549_8a9a874763.jpg\r\n'
p610
aS'http://farm3.static.flickr.com/2085/2312287052_b6908e773a.jpg\r\n'
p611
aS'http://farm5.static.flickr.com/4073/4760457998_a583d953e2.jpg\r\n'
p612
aS'http://farm3.static.flickr.com/2013/2324600223_c4cf336cd3.jpg\r\n'
p613
aS'http://farm4.static.flickr.com/3028/2361161475_d3405f3fd3.jpg\r\n'
p614
aS'http://farm2.static.flickr.com/1391/909167016_ce087afbea.jpg\r\n'
p615
aS'http://farm3.static.flickr.com/2384/2322867947_ae7c3a6184.jpg\r\n'
p616
aS'http://farm4.static.flickr.com/3418/3959326090_6353dbf3e3.jpg\r\n'
p617
aS'http://farm3.static.flickr.com/2523/3949770867_ef73ec9627.jpg\r\n'
p618
aS'http://farm3.static.flickr.com/2293/2330335490_65b6877607.jpg\r\n'
p619
aS'http://farm4.static.flickr.com/3076/2359347818_61e366698d.jpg\r\n'
p620
aS'http://farm5.static.flickr.com/4001/4652991610_5d03bec98c.jpg\r\n'
p621
aS'http://farm3.static.flickr.com/2754/4228584868_df50532dab.jpg\r\n'
p622
aS'http://farm5.static.flickr.com/4008/4532179417_1f2d74dd75.jpg\r\n'
p623
aS'http://farm4.static.flickr.com/3315/3431484486_9119dc562f.jpg\r\n'
p624
aS'http://farm5.static.flickr.com/4018/4218377924_cf308dd48f.jpg\r\n'
p625
aS'http://farm3.static.flickr.com/2197/2324518064_1a81f574c0.jpg\r\n'
p626
aS'http://farm4.static.flickr.com/3218/2327809347_42319c6b2b.jpg\r\n'
p627
aS'http://farm2.static.flickr.com/1272/1135836817_761622e428.jpg\r\n'
p628
aS'http://farm3.static.flickr.com/2049/2327848394_50cf3dbf71.jpg\r\n'
p629
aS'http://farm3.static.flickr.com/2715/4479685487_1ba1821573.jpg\r\n'
p630
aS'http://farm3.static.flickr.com/2495/3746924632_8c52928d19.jpg\r\n'
p631
aS'http://farm4.static.flickr.com/3144/2359115174_82aea8bd45.jpg\r\n'
p632
aS'http://farm2.static.flickr.com/1373/4726155042_2df932d415.jpg\r\n'
p633
aS'http://farm3.static.flickr.com/2337/2328943366_3ce71818a8.jpg\r\n'
p634
aS'http://farm3.static.flickr.com/2331/2329191319_1832114f05.jpg\r\n'
p635
aS'http://farm3.static.flickr.com/2456/4013486559_78beb51b2c.jpg\r\n'
p636
aS'http://farm2.static.flickr.com/1101/1269363444_affd9373de.jpg\r\n'
p637
aS'http://farm1.static.flickr.com/48/171257741_6ab071f618.jpg\r\n'
p638
aS'http://farm3.static.flickr.com/2058/2438754996_458351b22b.jpg\r\n'
p639
aS'http://farm4.static.flickr.com/3596/3364207672_6e6a00e933.jpg\r\n'
p640
aS'http://farm3.static.flickr.com/2370/2330611456_ddd285a24f.jpg\r\n'
p641
aS'http://farm3.static.flickr.com/2096/2328949300_c562a194a9.jpg\r\n'
p642
aS'http://farm4.static.flickr.com/3070/2329047756_16da94aa92.jpg\r\n'
p643
aS'http://farm4.static.flickr.com/3046/2327883665_22a9926615.jpg\r\n'
p644
aS'http://farm3.static.flickr.com/2412/2329233387_c13b489e2a.jpg\r\n'
p645
aS'http://farm5.static.flickr.com/4046/4576410676_d6836645bb.jpg\r\n'
p646
aS'http://farm4.static.flickr.com/3209/2327741392_81bfb8bdf6.jpg\r\n'
p647
aS'http://farm4.static.flickr.com/3331/3306236189_0c4b1230ae.jpg\r\n'
p648
aS'http://farm2.static.flickr.com/1437/681254877_f911eddeef.jpg\r\n'
p649
aS'http://farm3.static.flickr.com/2278/2330155364_a1c5277c12.jpg\r\n'
p650
aS'http://farm3.static.flickr.com/2379/2325374896_5a29b75215.jpg\r\n'
p651
aS'http://farm3.static.flickr.com/2791/4227822393_c8de363bd3.jpg\r\n'
p652
aS'http://farm4.static.flickr.com/3089/2768947754_74b473fb38.jpg\r\n'
p653
aS'http://farm1.static.flickr.com/22/41389503_3cd74d6885.jpg\r\n'
p654
aS'http://farm4.static.flickr.com/3237/2329204073_4a560693a5.jpg\r\n'
p655
aS'http://farm4.static.flickr.com/3192/2327870175_1fc2d22816.jpg\r\n'
p656
aS'http://farm3.static.flickr.com/2180/2329085839_03ffefc8e6.jpg\r\n'
p657
aS'http://farm4.static.flickr.com/3199/2328790166_8820a7e7e9.jpg\r\n'
p658
aS'http://farm4.static.flickr.com/3213/2329690269_1cbd6acf78.jpg\r\n'
p659
aS'http://farm2.static.flickr.com/1302/874807797_4b8b5e750c.jpg\r\n'
p660
aS'http://farm3.static.flickr.com/2251/2330526880_f5eb5be327.jpg\r\n'
p661
aS'http://farm5.static.flickr.com/4117/4735621894_a7253724c5.jpg\r\n'
p662
aS'http://farm3.static.flickr.com/2141/2330556674_b80a3bb079.jpg\r\n'
p663
aS'http://farm3.static.flickr.com/2294/2328075357_470a55a82e.jpg\r\n'
p664
aS'http://farm5.static.flickr.com/4010/4591203804_d4c642a1cb.jpg\r\n'
p665
aS'http://farm4.static.flickr.com/3293/2328961694_ddf6a0eb5e.jpg\r\n'
p666
aS'http://farm3.static.flickr.com/2009/2328771790_802ecc6ded.jpg\r\n'
p667
aS'http://farm1.static.flickr.com/160/432955960_e9502cd578.jpg\r\n'
p668
aS'http://farm1.static.flickr.com/51/133350227_87509c6008.jpg\r\n'
p669
aS'http://farm4.static.flickr.com/3252/2327756667_5fe4bf1a50.jpg\r\n'
p670
aS'http://farm3.static.flickr.com/2183/1526231525_bcdba72d6e.jpg\r\n'
p671
aS'http://farm5.static.flickr.com/4138/4805739505_9daa707ef1.jpg\r\n'
p672
aS'http://farm3.static.flickr.com/2692/4534812888_f4767ba424.jpg\r\n'
p673
aS'http://farm4.static.flickr.com/3189/2299169758_08dba7bc20.jpg\r\n'
p674
aS'http://farm4.static.flickr.com/3238/3052708336_ac6791dc4a.jpg\r\n'
p675
aS'http://farm4.static.flickr.com/3015/2325231762_69f266c5d7.jpg\r\n'
p676
aS'http://farm5.static.flickr.com/4073/4937360297_85a0f6ce56.jpg\r\n'
p677
aS'http://farm5.static.flickr.com/4013/4511307970_e71314b715.jpg\r\n'
p678
aS'http://farm3.static.flickr.com/2270/2324015939_d08b8ca296.jpg\r\n'
p679
aS'http://farm5.static.flickr.com/4146/5041681146_4d6cf51e92.jpg\r\n'
p680
aS'http://farm5.static.flickr.com/4063/4702163200_81e9ee862e.jpg\r\n'
p681
aS'http://farm4.static.flickr.com/3216/2328972076_8b8776eac7.jpg\r\n'
p682
aS'http://farm4.static.flickr.com/3225/2361590386_4b0f13d429.jpg\r\n'
p683
aS'http://farm3.static.flickr.com/2392/2358860651_8f583e5b97.jpg\r\n'
p684
aS'http://farm2.static.flickr.com/1293/561252616_df2a467211.jpg\r\n'
p685
aS'http://farm4.static.flickr.com/3072/2329605075_a5baae93b6.jpg\r\n'
p686
aS'http://farm3.static.flickr.com/2327/2327965493_772085ed4b.jpg\r\n'
p687
aS'http://farm1.static.flickr.com/49/140817512_bf7d4e50ea.jpg\r\n'
p688
aS'http://farm3.static.flickr.com/2164/2326884493_d3909b486c.jpg\r\n'
p689
aS'http://farm3.static.flickr.com/2055/2330468206_7b832c25d9.jpg\r\n'
p690
aS'http://farm4.static.flickr.com/3013/2831171072_963fc7a585.jpg\r\n'
p691
aS'http://farm3.static.flickr.com/2249/2328792431_780a68dbb9.jpg\r\n'
p692
aS'http://farm4.static.flickr.com/3599/3595390321_72e83d56af.jpg\r\n'
p693
aS'http://farm4.static.flickr.com/3061/2323761443_fdd3bde212.jpg\r\n'
p694
aS'http://farm3.static.flickr.com/2076/2362036016_e762bb95fc.jpg\r\n'
p695
aS'http://farm4.static.flickr.com/3230/2323937823_ae522944dd.jpg\r\n'
p696
aS'http://farm3.static.flickr.com/2256/2329924986_6cc83e2aa2.jpg\r\n'
p697
aS'http://farm3.static.flickr.com/2305/2325067584_8834e44d1c.jpg\r\n'
p698
aS'http://farm5.static.flickr.com/4093/4822937927_0fc5d2a9a1.jpg\r\n'
p699
aS'http://farm3.static.flickr.com/2192/2324579715_06610c90bb.jpg\r\n'
p700
aS'http://farm4.static.flickr.com/3151/2593405644_bc0d73289d.jpg\r\n'
p701
aS'http://farm4.static.flickr.com/3376/3435772574_14c53766b3.jpg\r\n'
p702
aS'http://farm4.static.flickr.com/3375/4621211036_aaab8fe2ee.jpg\r\n'
p703
aS'http://farm4.static.flickr.com/3247/2329318345_a1f9c242d4.jpg\r\n'
p704
aS'http://farm3.static.flickr.com/2132/2329737302_26f998a323.jpg\r\n'
p705
aS'http://farm5.static.flickr.com/4144/5041059241_e20325766f.jpg\r\n'
p706
aS'http://farm3.static.flickr.com/2308/2361177991_dcca544586.jpg\r\n'
p707
aS'http://www.pzc.nl/multimedia/archive/00528/WA2_2307_FOTDUIKEN_528170b.jpg\r\n'
p708
aS'http://farm2.static.flickr.com/1436/1117935110_dfe2bd45fa.jpg\r\n'
p709
aS'http://farm4.static.flickr.com/3034/2425854623_a75fa0283f.jpg\r\n'
p710
aS'http://farm4.static.flickr.com/3224/2328860823_c06881af35.jpg\r\n'
p711
aS'http://farm3.static.flickr.com/2306/2326878311_28ba55425c.jpg\r\n'
p712
aS'http://farm3.static.flickr.com/2107/2325009109_5127dfe006.jpg\r\n'
p713
aS'http://farm4.static.flickr.com/3239/2358429955_2e6b54d6db.jpg\r\n'
p714
aS'http://farm3.static.flickr.com/2033/2323831007_87e178a05d.jpg\r\n'
p715
aS'http://farm3.static.flickr.com/2010/2358952109_578e38af32.jpg\r\n'
p716
aS'http://farm4.static.flickr.com/3036/3075926585_aa075b32cd.jpg\r\n'
p717
aS'http://farm4.static.flickr.com/3265/2805412616_60a67487f6.jpg\r\n'
p718
aS'http://farm3.static.flickr.com/2159/1859549247_b8ea73ddc9.jpg\r\n'
p719
aS'http://farm5.static.flickr.com/4022/4383706185_28a4dfb3a1.jpg\r\n'
p720
aS'http://farm3.static.flickr.com/2099/2426669968_88e6123aaa.jpg\r\n'
p721
aS'http://farm4.static.flickr.com/3242/3016300396_0ddb749d9f.jpg\r\n'
p722
aS'http://farm4.static.flickr.com/3127/2298367971_21d513af77.jpg\r\n'
p723
aS'http://farm4.static.flickr.com/3089/3121929329_07fd10aa4c.jpg\r\n'
p724
aS'http://farm3.static.flickr.com/2530/3950548660_c446a14757.jpg\r\n'
p725
aS'http://farm4.static.flickr.com/3108/2329906880_fa53c4bc4f.jpg\r\n'
p726
aS'http://farm3.static.flickr.com/2003/2324990802_84893c499b.jpg\r\n'
p727
aS'http://farm3.static.flickr.com/2080/2101505744_6ed1138a5d.jpg\r\n'
p728
aS'http://farm3.static.flickr.com/2014/2384754214_ef0eac154a.jpg\r\n'
p729
aS'http://farm5.static.flickr.com/4005/4620598287_2d40aecf61.jpg\r\n'
p730
aS'http://farm3.static.flickr.com/2064/2328919574_a0663af6c7.jpg\r\n'
p731
aS'http://farm3.static.flickr.com/2050/2328833627_055e866a82.jpg\r\n'
p732
aS'http://farm4.static.flickr.com/3467/3922813812_583f8dee22.jpg\r\n'
p733
aS'http://farm3.static.flickr.com/2580/3922825712_39de3ff443.jpg\r\n'
p734
aS'http://farm3.static.flickr.com/2291/2324721263_c82bf3157c.jpg\r\n'
p735
aS'http://farm3.static.flickr.com/2628/3817735631_fb57535956.jpg\r\n'
p736
aS'http://farm3.static.flickr.com/2567/4227823567_7c0a380531.jpg\r\n'
p737
aS'http://farm3.static.flickr.com/2081/2330089068_ff13ac2431.jpg\r\n'
p738
aS'http://farm3.static.flickr.com/2522/3958578147_f750478006.jpg\r\n'
p739
aS'http://farm5.static.flickr.com/4064/4534180173_55fc9bc9f0.jpg\r\n'
p740
aS'http://farm4.static.flickr.com/3062/2323334421_704762fe4f.jpg\r\n'
p741
aS'http://farm4.static.flickr.com/3479/3912752838_4deff81cb3.jpg\r\n'
p742
aS'http://farm3.static.flickr.com/2140/2328758932_2964730ea0.jpg\r\n'
p743
aS'http://farm4.static.flickr.com/3237/2359790954_04f335b8b7.jpg\r\n'
p744
aS'http://farm4.static.flickr.com/3030/2328199959_8364313049.jpg\r\n'
p745
aS'http://farm4.static.flickr.com/3643/3691752705_1fcb23b376.jpg\r\n'
p746
aS'http://farm3.static.flickr.com/2110/2330632528_b92aa1b285.jpg\r\n'
p747
aS'http://farm4.static.flickr.com/3383/3410792525_bbfdb337c2.jpg\r\n'
p748
aS'http://farm4.static.flickr.com/3230/2322888415_808bbf108a.jpg\r\n'
p749
aS'http://farm3.static.flickr.com/2188/2327255465_f7fbb054b3.jpg\r\n'
p750
aS'http://farm4.static.flickr.com/3168/2325063385_1ff6381b23.jpg\r\n'
p751
aS'http://farm4.static.flickr.com/3382/3485864171_67e3a3a48f.jpg\r\n'
p752
aS'http://farm5.static.flickr.com/4048/4468868697_705bca831f.jpg\r\n'
p753
aS'http://farm3.static.flickr.com/2412/2323126595_f191a1c3dd.jpg\r\n'
p754
aS'http://farm5.static.flickr.com/4010/4591204024_3dcd83eac2.jpg\r\n'
p755
aS'http://farm3.static.flickr.com/2212/2459833976_bac23676c0.jpg\r\n'
p756
aS'http://farm4.static.flickr.com/3191/2329052045_6bb17259de.jpg\r\n'
p757
aS'http://farm4.static.flickr.com/3078/2328175225_abd28468e2.jpg\r\n'
p758
aS'http://farm4.static.flickr.com/3022/2328873760_29e0acc8ae.jpg\r\n'
p759
aS'http://farm4.static.flickr.com/3375/3438298704_971b9c9690.jpg\r\n'
p760
aS'http://farm5.static.flickr.com/4149/4995312389_8a359d8c5e.jpg\r\n'
p761
aS'http://farm5.static.flickr.com/4153/4947875131_e13f0ecf88.jpg\r\n'
p762
aS'http://farm4.static.flickr.com/3326/4591197026_37cdb2f2f6.jpg\r\n'
p763
aS'http://farm4.static.flickr.com/3443/3949790471_460b1c60ff.jpg\r\n'
p764
aS'http://farm4.static.flickr.com/3275/2327817378_0d3b37f89b.jpg\r\n'
p765
aS'http://farm3.static.flickr.com/2241/2328467278_f727691cbe.jpg\r\n'
p766
aS'http://farm4.static.flickr.com/3408/3643836710_358ae7fe3e.jpg\r\n'
p767
aS'http://farm3.static.flickr.com/2803/4316407934_0b53045ff0.jpg\r\n'
p768
aS'http://farm3.static.flickr.com/2115/2323970982_f107a9e4a6.jpg\r\n'
p769
aS'http://farm3.static.flickr.com/2022/2327990359_d14483f7c6.jpg\r\n'
p770
aS'http://farm3.static.flickr.com/2392/2327189155_820aa2fbbf.jpg\r\n'
p771
aS'http://farm1.static.flickr.com/109/314219880_3409055bac.jpg\r\n'
p772
aS'http://blogimages.seniorennet.be/postduif/199184-880af1a06ba06ff7e2d19b58329ee6a3.JPG\r\n'
p773
aS'http://farm3.static.flickr.com/2351/2325863798_64cc7f944e.jpg\r\n'
p774
aS'http://farm5.static.flickr.com/4032/4544087148_134590202d.jpg\r\n'
p775
aS'http://farm3.static.flickr.com/2156/2303765079_9c67533720.jpg\r\n'
p776
aS'http://farm5.static.flickr.com/4025/4576385186_5e8503e875.jpg\r\n'
p777
aS'http://farm3.static.flickr.com/2022/2328644347_5b28c758fe.jpg\r\n'
p778
aS'http://farm4.static.flickr.com/3044/2866592286_1b3e02a43c.jpg\r\n'
p779
aS'http://farm3.static.flickr.com/2460/3713774790_ce12c28ac7.jpg\r\n'
p780
aS'http://farm4.static.flickr.com/3294/3950547780_47803e5c17.jpg\r\n'
p781
aS'http://farm5.static.flickr.com/4004/4350074729_19775dfb03.jpg\r\n'
p782
aS'http://farm4.static.flickr.com/3070/2329893322_720c7f1d0d.jpg\r\n'
p783
aS'http://farm3.static.flickr.com/2091/2071220141_da51829a96.jpg\r\n'
p784
aS'http://farm4.static.flickr.com/3537/3429257200_f12a7a711a.jpg\r\n'
p785
aS'http://farm4.static.flickr.com/3296/2329848856_7fb275a88e.jpg\r\n'
p786
aS'http://farm3.static.flickr.com/2638/4230730879_68157fccdf.jpg\r\n'
p787
aS'http://farm5.static.flickr.com/4001/4306441555_b5b7311f38.jpg\r\n'
p788
aS'http://farm4.static.flickr.com/3388/3446870581_f379bbaf23.jpg\r\n'
p789
aS'http://farm4.static.flickr.com/3046/2328604313_60b229a9c8.jpg\r\n'
p790
aS'http://farm4.static.flickr.com/3471/3795954081_99d4738f5c.jpg\r\n'
p791
aS'http://farm4.static.flickr.com/3643/3695292604_e0eb7304b8.jpg\r\n'
p792
aS'http://farm2.static.flickr.com/1045/1358849841_b0beb5dcd8.jpg\r\n'
p793
aS'http://farm5.static.flickr.com/4039/4547358825_b2d79503b2.jpg\r\n'
p794
aS'http://farm3.static.flickr.com/2453/3922012847_e6131f20c1.jpg\r\n'
p795
aS'http://farm3.static.flickr.com/2080/3537039279_18be317bcc.jpg\r\n'
p796
aS'http://farm4.static.flickr.com/3552/3643022237_aacb950cfa.jpg\r\n'
p797
aS'http://farm4.static.flickr.com/3659/3643829912_06945a6cd8.jpg\r\n'
p798
aS'http://farm3.static.flickr.com/2015/2330604458_553003dd30.jpg\r\n'
p799
aS'http://farm5.static.flickr.com/4116/4735619496_207671b82b.jpg\r\n'
p800
aS'http://farm4.static.flickr.com/3660/3486633100_40316358b3.jpg\r\n'
p801
aS'http://farm3.static.flickr.com/2619/4186527849_ae0a4f2e03.jpg\r\n'
p802
aS'http://farm3.static.flickr.com/2502/3932842315_9d4545d4df.jpg\r\n'
p803
aS'http://farm3.static.flickr.com/2561/3919378948_bc74334339.jpg\r\n'
p804
aS'http://farm4.static.flickr.com/3451/3224840289_57cdafd5fa.jpg\r\n'
p805
aS'http://farm4.static.flickr.com/3599/3364974766_114cf387c1.jpg\r\n'
p806
aS'http://farm3.static.flickr.com/2198/2329877900_8b299e2f41.jpg\r\n'
p807
aS'http://farm5.static.flickr.com/4064/4337897392_e29951f21a.jpg\r\n'
p808
aS'http://farm4.static.flickr.com/3505/3795953837_bc531e2dc9.jpg\r\n'
p809
aS'http://farm5.static.flickr.com/4047/4316564992_ee0cf7faca.jpg\r\n'
p810
aS'http://farm5.static.flickr.com/4072/4591206734_305032221e.jpg\r\n'
p811
aS'http://farm3.static.flickr.com/2408/2361125405_bbcb2e3814.jpg\r\n'
p812
aS'http://farm4.static.flickr.com/3332/3430811809_7b9470299b.jpg\r\n'
p813
aS'http://farm4.static.flickr.com/3147/2299170034_5fe13f840f.jpg\r\n'
p814
aS'http://farm4.static.flickr.com/3259/2329193849_4650469cd5.jpg\r\n'
p815
aS'http://farm1.static.flickr.com/7/7353921_851f8213b0.jpg\r\n'
p816
aS'http://farm4.static.flickr.com/3251/3016006304_9d08ab3bfb.jpg\r\n'
p817
aS'http://farm3.static.flickr.com/2687/4246195598_7a0b2ee909.jpg\r\n'
p818
aS'http://farm3.static.flickr.com/2580/3922107965_95d847fa1c.jpg\r\n'
p819
aS'http://farm4.static.flickr.com/3655/3455066981_31674ac1ef.jpg\r\n'
p820
aS'http://farm3.static.flickr.com/2193/2326817249_2e529fcbf3.jpg\r\n'
p821
aS'http://farm5.static.flickr.com/4139/4777402334_7c04e58143.jpg\r\n'
p822
aS'http://farm3.static.flickr.com/2456/3889253873_8652668754.jpg\r\n'
p823
aS'http://farm4.static.flickr.com/3326/3441383647_241fbfe003.jpg\r\n'
p824
aS'http://farm3.static.flickr.com/2171/2328497254_aaf0ce60a1.jpg\r\n'
p825
aS'http://farm3.static.flickr.com/2208/3643824010_e78eb594db.jpg\r\n'
p826
aS'http://farm5.static.flickr.com/4031/4575849277_6299658629.jpg\r\n'
p827
aS'http://farm4.static.flickr.com/3441/3852253334_ffcb5ab691.jpg\r\n'
p828
aS'http://farm4.static.flickr.com/3046/2329614009_2f0e2c92f7.jpg\r\n'
p829
aS'http://farm4.static.flickr.com/3637/3643828102_e6eaef33e7.jpg\r\n'
p830
aS'http://farm3.static.flickr.com/2242/2324888771_dd3dc8c146.jpg\r\n'
p831
aS'http://farm5.static.flickr.com/4096/4823555704_24b1850b3a.jpg\r\n'
p832
aS'http://farm4.static.flickr.com/3232/2426666474_e9d63dd363.jpg\r\n'
p833
aS'http://farm3.static.flickr.com/2788/4419785275_e0c983177b.jpg\r\n'
p834
aS'http://farm3.static.flickr.com/2119/2327181637_5b73f7bd17.jpg\r\n'
p835
aS'http://farm4.static.flickr.com/3281/3032529260_30ea010904.jpg\r\n'
p836
aS'http://farm3.static.flickr.com/2031/2327398065_9d0f02e3b6.jpg\r\n'
p837
aS'http://farm4.static.flickr.com/3182/2361653808_ca1d05cd41.jpg\r\n'
p838
aS'http://farm3.static.flickr.com/2448/3919529538_bc7a938f01.jpg\r\n'
p839
aS'http://farm5.static.flickr.com/4022/4365586916_386047ef55.jpg\r\n'
p840
aS'http://farm4.static.flickr.com/3062/3493029802_2d52b11a32.jpg\r\n'
p841
aS'http://farm4.static.flickr.com/3004/2324943427_7cbf1dc501.jpg\r\n'
p842
aS'http://farm4.static.flickr.com/3347/3512566306_bbb57f24a9.jpg\r\n'
p843
aS'http://farm4.static.flickr.com/3333/3445611405_d6db641ba5.jpg\r\n'
p844
aS'http://farm3.static.flickr.com/2263/2323774331_9f8fff7207.jpg\r\n'
p845
aS'http://farm4.static.flickr.com/3534/3784178849_b1c832faf4.jpg\r\n'
p846
aS'http://farm4.static.flickr.com/3223/2329578683_034bc61afd.jpg\r\n'
p847
aS'http://farm3.static.flickr.com/2531/3937211493_9cc8e11306.jpg\r\n'
p848
aS'http://www.beeldbank.leidenuniv.nl/ImageDisplay.php?uid=FT084205&thumbed=5\r\n'
p849
aS'http://farm4.static.flickr.com/3264/2325417172_0efceb3cdb.jpg\r\n'
p850
aS'http://farm5.static.flickr.com/4065/4704959784_c18e263567.jpg\r\n'
p851
aS'http://farm3.static.flickr.com/2407/2324244093_e3ceb04718.jpg\r\n'
p852
aS'http://farm3.static.flickr.com/2299/2324181345_1030f0f663.jpg\r\n'
p853
aS'http://farm5.static.flickr.com/4050/4704959932_38be7b5c76.jpg\r\n'
p854
aS'http://farm3.static.flickr.com/2589/3922012117_b4c03dfa4f.jpg\r\n'
p855
aS'http://farm4.static.flickr.com/3369/3411153587_844fac1c44.jpg\r\n'
p856
aS'http://farm3.static.flickr.com/2601/3922011725_58cbebc49f.jpg\r\n'
p857
aS'http://farm1.static.flickr.com/38/103899750_c675f59c63.jpg\r\n'
p858
aS'http://cmp.roularta.be/cmdata/Images/site72/nieuws/wetenschap/wetenschap7/mombaerts300.jpg\r\n'
p859
aS'http://farm3.static.flickr.com/2520/4015869299_0494729b14.jpg\r\n'
p860
aS'http://farm5.static.flickr.com/4144/4968925184_296a7a215c.jpg\r\n'
p861
aS'http://farm5.static.flickr.com/4030/4414059824_d672edc274.jpg\r\n'
p862
aS'http://farm4.static.flickr.com/3067/3015464563_aed5eb6222.jpg\r\n'
p863
aS'http://farm3.static.flickr.com/2740/4364844653_56e161e224.jpg\r\n'
p864
aS'http://farm3.static.flickr.com/2008/2358495433_782ff5ffbb.jpg\r\n'
p865
aS'http://farm5.static.flickr.com/4102/4737127329_2ba2406a1e.jpg\r\n'
p866
aS'http://farm3.static.flickr.com/2621/4016649586_5dcb1d6688.jpg\r\n'
p867
aS'http://farm5.static.flickr.com/4014/4413439048_76c6eeb1d2.jpg\r\n'
p868
aS'http://farm3.static.flickr.com/2055/2325098142_c187366cb2.jpg\r\n'
p869
aS'http://farm5.static.flickr.com/4072/4293413378_ca88acda91.jpg\r\n'
p870
aS'http://farm4.static.flickr.com/3603/3695291130_123543dec4.jpg\r\n'
p871
aS'http://farm4.static.flickr.com/3420/4576465928_839e022d80.jpg\r\n'
p872
aS'http://www.robertmoylan.com/headache_man2.jpg\r\n'
p873
aS'http://farm4.static.flickr.com/3446/3254549951_5fb27e91ff.jpg\r\n'
p874
aS'http://www.hidpf.org.cn/UpPic/2009826105627\xe7\x9c\x81\xe6\xae\x8b\xe8\x81\x94\xe5\x85\x9a\xe7\xbb\x84\xe6\x88\x90\xe5\x91\x98\xe3\x80\x81\xe5\x89\xaf\xe7\x90\x86\xe4\xba\x8b\xe9\x95\xbf\xe9\xbb\x8e\xe4\xb8\x96\xe7\xab\xa0\xe6\x9f\xa5\xe7\x9c\x8b\xe6\xae\x8b\xe7\x96\xbe\xe4\xba\xba\xe7\x9a\x84\xe5\xba\x94\xe8\x81\x98\xe6\x9d\x90\xe6\x96\x99.JPG\r\n'
p875
aS'http://farm4.static.flickr.com/3644/3952078050_2670c45dce.jpg\r\n'
p876
aS'http://farm1.static.flickr.com/11/88878405_038b8989f1.jpg\r\n'
p877
aS'http://farm3.static.flickr.com/2342/2327987641_3b40ef4cce.jpg\r\n'
p878
aS'http://farm3.static.flickr.com/2240/2046986236_9db760c527.jpg\r\n'
p879
aS'http://farm5.static.flickr.com/4132/5087767623_4690d3f0fa.jpg\r\n'
p880
aS'http://farm5.static.flickr.com/4058/4346373098_dc7645b980.jpg\r\n'
p881
aS'http://farm4.static.flickr.com/3177/2325667328_a1cd01b5a9.jpg\r\n'
p882
aS'http://farm2.static.flickr.com/1034/4611981736_d7f73982b1.jpg\r\n'
p883
aS'http://farm1.static.flickr.com/142/355886371_b0cccd94d4.jpg\r\n'
p884
aS'http://farm1.static.flickr.com/137/324519988_006b10ac8b.jpg\r\n'
p885
aS'http://farm3.static.flickr.com/2658/3674969739_1658bcf542.jpg\r\n'
p886
aS'http://farm4.static.flickr.com/3202/2327719609_98887c9860.jpg\r\n'
p887
aS'http://farm4.static.flickr.com/3022/2633731365_f81510f6aa.jpg\r\n'
p888
aS'http://farm4.static.flickr.com/3457/3225699678_c2a4d286b2.jpg\r\n'
p889
aS'http://farm5.static.flickr.com/4002/4468707453_cd6558ffee.jpg\r\n'
p890
aS'http://farm4.static.flickr.com/3074/2985938105_33a1034b86.jpg\r\n'
p891
aS'http://farm3.static.flickr.com/2065/2362174880_1f2bb1139e.jpg\r\n'
p892
aS'http://farm1.static.flickr.com/4/4068597_e524ed2e5b.jpg\r\n'
p893
aS'http://farm5.static.flickr.com/4020/4217610855_e10ae69e11.jpg\r\n'
p894
aS'http://farm3.static.flickr.com/2390/2362042892_39238ed244.jpg\r\n'
p895
aS'http://farm4.static.flickr.com/3038/2327978309_1cfdbdde33.jpg\r\n'
p896
aS'http://farm4.static.flickr.com/3076/2328926931_dd1ab0a702.jpg\r\n'
p897
aS'http://farm5.static.flickr.com/4133/5065231864_2d0216b313.jpg\r\n'
p898
aS'http://farm4.static.flickr.com/3174/2299169400_f215d254df.jpg\r\n'
p899
aS'http://farm4.static.flickr.com/3432/4565060216_52a6061267.jpg\r\n'
p900
aS'http://farm3.static.flickr.com/2285/2511598256_120e79ea47.jpg\r\n'
p901
aS'http://farm4.static.flickr.com/3176/2323232969_3589e253d4.jpg\r\n'
p902
aS'http://farm1.static.flickr.com/169/403774113_ace698c172.jpg\r\n'
p903
aS'http://farm3.static.flickr.com/2322/2320418123_5143440bde.jpg\r\n'
p904
aS'http://farm5.static.flickr.com/4034/4535081878_b5dd3db41e.jpg\r\n'
p905
aS'http://farm4.static.flickr.com/3551/3442200096_d1708f1609.jpg\r\n'
p906
aS'http://farm4.static.flickr.com/3190/2329460150_bafcf6a0d9.jpg\r\n'
p907
aS'http://farm1.static.flickr.com/54/137852578_aa5f41c06a.jpg\r\n'
p908
aS'http://farm4.static.flickr.com/3646/3683662642_1e6bc852e0.jpg\r\n'
p909
aS'http://farm3.static.flickr.com/2169/2329968774_e650d643f7.jpg\r\n'
p910
aS'http://farm1.static.flickr.com/26/52107155_6b61c4cd6d.jpg\r\n'
p911
aS'http://farm5.static.flickr.com/4025/4317891803_7d86c06b4a.jpg\r\n'
p912
aS'http://farm3.static.flickr.com/2702/4114711442_c0be887513.jpg\r\n'
p913
aS'http://farm3.static.flickr.com/2746/4468870497_828b81f384.jpg\r\n'
p914
aS'http://farm4.static.flickr.com/3070/2733331441_6d417be21a.jpg\r\n'
p915
aS'http://farm4.static.flickr.com/3167/2786941825_48aee36449.jpg\r\n'
p916
aS'http://farm4.static.flickr.com/3422/3895551395_4fcc0b97b6.jpg\r\n'
p917
aS'http://farm4.static.flickr.com/3232/2323784894_16625382fa.jpg\r\n'
p918
aS'http://farm5.static.flickr.com/4059/4576532628_42383c8768.jpg\r\n'
p919
aS'http://farm3.static.flickr.com/2129/2327844033_47b6fa8e45.jpg\r\n'
p920
aS'http://farm4.static.flickr.com/3191/3015464487_904b7937fa.jpg\r\n'
p921
aS'http://farm4.static.flickr.com/3592/3486732758_347df10744.jpg\r\n'
p922
aS'http://farm3.static.flickr.com/2165/2329286481_33293e5327.jpg\r\n'
p923
aS'http://farm3.static.flickr.com/2375/2329665165_120b7cfb67.jpg\r\n'
p924
aS'http://farm2.static.flickr.com/1182/527001986_411b78c924.jpg\r\n'
p925
aS'http://farm5.static.flickr.com/4103/5088364506_fa82ed5515.jpg\r\n'
p926
aS'http://farm3.static.flickr.com/2603/3694482459_bcac4297e0.jpg\r\n'
p927
aS'http://farm3.static.flickr.com/2500/4036408623_c347b77a31.jpg\r\n'
p928
aS'http://farm1.static.flickr.com/116/287632806_d37f0f0bfb.jpg\r\n'
p929
aS'http://farm2.static.flickr.com/1412/4725470857_25a2731c45.jpg\r\n'
p930
aS'http://farm4.static.flickr.com/3070/2918581967_265d0d4384.jpg\r\n'
p931
aS'http://farm3.static.flickr.com/2195/2327942439_410f088375.jpg\r\n'
p932
aS'http://farm4.static.flickr.com/3407/4575782495_abd4040548.jpg\r\n'
p933
aS'http://farm3.static.flickr.com/2348/2327805968_634c9ca1b1.jpg\r\n'
p934
aS'http://farm3.static.flickr.com/2369/2328021037_0b5d0dcb81.jpg\r\n'
p935
aS'http://farm4.static.flickr.com/3114/2329020939_4d92bd6594.jpg\r\n'
p936
aS'http://farm3.static.flickr.com/2256/2329178991_6e88534ac0.jpg\r\n'
p937
aS'http://farm4.static.flickr.com/3501/3273057223_4aa5ee3c53.jpg\r\n'
p938
aS'http://farm5.static.flickr.com/4041/4534812608_2b8a642b73.jpg\r\n'
p939
aS'http://farm3.static.flickr.com/2169/2327814542_197db07d05.jpg\r\n'
p940
aS'http://biocentrichealth.com/images/sad-old-man.jpg\r\n'
p941
aS'http://farm3.static.flickr.com/2682/4381485782_b93eaff462.jpg\r\n'
p942
aS'http://farm3.static.flickr.com/2438/3649418764_6f56775a06.jpg\r\n'
p943
aS'http://farm5.static.flickr.com/4042/4590586319_471c969f37.jpg\r\n'
p944
aS'http://farm4.static.flickr.com/3215/3040670872_ae0495dcdf.jpg\r\n'
p945
aS'http://farm5.static.flickr.com/4050/4305935271_cca8ff7458.jpg\r\n'
p946
aS'http://farm3.static.flickr.com/2477/3887154636_b6df7e61a7.jpg\r\n'
p947
aS'http://farm3.static.flickr.com/2142/2193735189_a02154fd2d.jpg\r\n'
p948
aS'http://farm3.static.flickr.com/2388/2324507917_abcef7fff1.jpg\r\n'
p949
aS'http://farm4.static.flickr.com/3510/3949767989_1d97ecc296.jpg\r\n'
p950
aS'http://farm5.static.flickr.com/4117/4937365757_1c67deee3a.jpg\r\n'
p951
aS'http://farm4.static.flickr.com/3529/3852248188_a0cc1b49dd.jpg\r\n'
p952
aS'http://farm3.static.flickr.com/2605/3950547940_d18d026e65.jpg\r\n'
p953
aS'http://farm3.static.flickr.com/2029/2327434819_6965686127.jpg\r\n'
p954
aS'http://farm2.static.flickr.com/1094/1485921857_a723b801f0.jpg\r\n'
p955
aS'http://farm4.static.flickr.com/3082/2330351786_a9721fe5d9.jpg\r\n'
p956
aS'http://farm4.static.flickr.com/3619/3438279638_77e1f7f195.jpg\r\n'
p957
aS'http://farm3.static.flickr.com/2788/4468849145_2d96572bde.jpg\r\n'
p958
aS'http://farm3.static.flickr.com/2338/2329961190_7b6bcc1cb3.jpg\r\n'
p959
aS'http://farm3.static.flickr.com/2301/1531453578_523537967c.jpg\r\n'
p960
aS'http://farm4.static.flickr.com/3475/3922021911_40a62c038c.jpg\r\n'
p961
aS'http://farm4.static.flickr.com/3099/2606764053_cea4097d13.jpg\r\n'
p962
aS'http://farm3.static.flickr.com/2453/3639404325_d25d688e1d.jpg\r\n'
p963
aS'http://farm4.static.flickr.com/3428/3950551846_2cc243fcb3.jpg\r\n'
p964
aS'http://farm4.static.flickr.com/3638/3519573117_018de2d698.jpg\r\n'
p965
aS'http://farm3.static.flickr.com/2492/3896331110_60119cba59.jpg\r\n'
p966
aS'http://farm4.static.flickr.com/3635/3352015836_96d0746bcb.jpg\r\n'
p967
aS'http://farm3.static.flickr.com/2329/2325052543_f495cd1245.jpg\r\n'
p968
aS'http://farm4.static.flickr.com/3608/3486620110_00d41545f2.jpg\r\n'
p969
aS'http://farm4.static.flickr.com/3612/3442185442_681ca81fa1.jpg\r\n'
p970
aS'http://farm4.static.flickr.com/3092/2330245204_52a1e57e01.jpg\r\n'
p971
aS'http://farm5.static.flickr.com/4038/4405738437_15c9d3124a.jpg\r\n'
p972
aS'http://farm4.static.flickr.com/3104/2326928033_4038955a65.jpg\r\n'
p973
aS'http://farm5.static.flickr.com/4023/4505642033_fe304da0e1.jpg\r\n'
p974
aS'http://farm3.static.flickr.com/2318/2358663663_f52057636c.jpg\r\n'
p975
aS'http://farm4.static.flickr.com/3415/3442191026_a147a2e1c9.jpg\r\n'
p976
aS'http://farm1.static.flickr.com/131/333955232_5c109e880c.jpg\r\n'
p977
aS'http://farm1.static.flickr.com/211/485348132_2ce7999dbf.jpg\r\n'
p978
aS'http://farm5.static.flickr.com/4068/4349226566_fcfdcf3b68.jpg\r\n'
p979
aS'http://farm5.static.flickr.com/4068/4649538885_ba5088b7d4.jpg\r\n'
p980
aS'http://farm4.static.flickr.com/3148/2359678392_7fc01cf9f7.jpg\r\n'
p981
aS'http://farm3.static.flickr.com/2075/2094551084_30c2f43c76.jpg\r\n'
p982
aS'http://farm3.static.flickr.com/2385/2330496986_5ed8e43df9.jpg\r\n'
p983
aS'http://farm3.static.flickr.com/2667/3798773749_6ee70d7f8b.jpg\r\n'
p984
aS'http://farm3.static.flickr.com/2086/2328189124_585a813872.jpg\r\n'
p985
aS'http://farm4.static.flickr.com/3333/3258320235_d42b6a3735.jpg\r\n'
p986
aS'http://farm4.static.flickr.com/3065/2954289845_35a2cce8fc.jpg\r\n'
p987
aS'http://farm3.static.flickr.com/2259/2328856189_5696cbaabd.jpg\r\n'
p988
aS'http://farm3.static.flickr.com/2671/3961207684_e4dae8eae1.jpg\r\n'
p989
aS'http://farm3.static.flickr.com/2176/2360996833_1f2f329d02.jpg\r\n'
p990
aS'http://farm3.static.flickr.com/2202/1527119752_9116329d6c.jpg\r\n'
p991
aS'http://farm4.static.flickr.com/3111/2329323725_0b576e5131.jpg\r\n'
p992
aS'http://farm4.static.flickr.com/3188/2771584925_e4649e9407.jpg\r\n'
p993
aS'http://farm5.static.flickr.com/4046/4294942203_e882e6f6fc.jpg\r\n'
p994
aS'http://farm4.static.flickr.com/3306/3493020688_d9f98da3c5.jpg\r\n'
p995
aS'http://farm4.static.flickr.com/3343/4626382145_3a8170f339.jpg\r\n'
p996
aS'http://farm3.static.flickr.com/2175/2328587540_9745bfc129.jpg\r\n'
p997
aS'http://farm4.static.flickr.com/3036/2533862441_78e4cb5d39.jpg\r\n'
p998
aS'http://farm3.static.flickr.com/2414/2329403703_8eb9182503.jpg\r\n'
p999
aS'http://farm3.static.flickr.com/2355/2324818680_2f394d41e1.jpg\r\n'
p1000
aS'http://farm4.static.flickr.com/3243/2329021356_e4dba1165d.jpg\r\n'
p1001
aS'http://farm4.static.flickr.com/3126/2327714887_fe48b6acd1.jpg\r\n'
p1002
aS'http://farm5.static.flickr.com/4131/5087766091_eb66950d83.jpg\r\n'
p1003
aS'http://farm4.static.flickr.com/3209/2327112647_6b499b70d0.jpg\r\n'
p1004
aS'http://farm3.static.flickr.com/2227/2325040996_92fdcff689.jpg\r\n'
p1005
aS'http://farm4.static.flickr.com/3332/3265840705_4d530372ba.jpg\r\n'
p1006
aS'http://farm1.static.flickr.com/79/205069252_d4d0f87810.jpg\r\n'
p1007
aS'http://farm5.static.flickr.com/4051/4591200758_1e20349372.jpg\r\n'
p1008
aS'http://farm1.static.flickr.com/205/512925429_7934cde043.jpg\r\n'
p1009
aS'http://farm3.static.flickr.com/2260/2327656167_da3b0c16be.jpg\r\n'
p1010
aS'http://farm5.static.flickr.com/4123/4820439926_ec26ce1e10.jpg\r\n'
p1011
aS'http://farm2.static.flickr.com/1230/1448744391_1719222db7.jpg\r\n'
p1012
aS'http://farm3.static.flickr.com/2396/2510767609_4d272de63f.jpg\r\n'
p1013
aS'http://farm3.static.flickr.com/2337/2361984704_285d1763a2.jpg\r\n'
p1014
aS'http://farm4.static.flickr.com/3018/2329041365_0f543e4827.jpg\r\n'
p1015
aS'http://farm3.static.flickr.com/2084/2328168595_7ed1402015.jpg\r\n'
p1016
aS'http://farm4.static.flickr.com/3280/2325281060_de9ee598c3.jpg\r\n'
p1017
aS'http://farm3.static.flickr.com/2196/2330502292_d0fd52ef1d.jpg\r\n'
p1018
aS'http://farm3.static.flickr.com/2285/2325833176_6520799aba.jpg\r\n'
p1019
aS'http://www.mycompass.ca/snakeman.jpg\r\n'
p1020
aS'http://farm4.static.flickr.com/3210/2325712610_9b9af55e19.jpg\r\n'
p1021
aS'http://farm4.static.flickr.com/3135/2991978459_4ccf7b3af1.jpg\r\n'
p1022
aS'http://farm4.static.flickr.com/3114/3224879495_805fd3fe2e.jpg\r\n'
p1023
aS'http://farm3.static.flickr.com/2142/2325142888_6fa8fc95a3.jpg\r\n'
p1024
aS'http://farm4.static.flickr.com/3389/3519042147_28c0b8a19f.jpg\r\n'
p1025
aS'http://farm4.static.flickr.com/3259/2324698533_d5c6a83423.jpg\r\n'
p1026
aS'http://farm4.static.flickr.com/3172/2325359982_a02e5955ce.jpg\r\n'
p1027
aS'http://farm4.static.flickr.com/3570/3351200499_dcdb47c6b9.jpg\r\n'
p1028
aS'http://farm3.static.flickr.com/2336/2328584078_7aa7b1ddee.jpg\r\n'
p1029
aS'http://farm4.static.flickr.com/3352/3313655036_a81d7b31b1.jpg\r\n'
p1030
aS'http://farm3.static.flickr.com/2721/4365167928_454f750983.jpg\r\n'
p1031
aS'http://farm3.static.flickr.com/2440/3595390233_ace2c126be.jpg\r\n'
p1032
aS'http://farm3.static.flickr.com/2522/3950550842_b92880c173.jpg\r\n'
p1033
aS'http://farm5.static.flickr.com/4048/4534814680_13af19083c.jpg\r\n'
p1034
aS'http://farm1.static.flickr.com/14/18332982_64acee7c98.jpg\r\n'
p1035
aS'http://farm2.static.flickr.com/1278/682114298_c89a956168.jpg\r\n'
p1036
aS'http://farm3.static.flickr.com/2116/2039188136_eeec0e532e.jpg\r\n'
p1037
aS'http://farm3.static.flickr.com/2181/2137971166_bdafc44f36.jpg\r\n'
p1038
aS'http://farm4.static.flickr.com/3279/2329106173_4dd17d3d19.jpg\r\n'
p1039
aS'http://farm5.static.flickr.com/4026/4297544862_2acdc1ff82.jpg\r\n'
p1040
aS'http://farm4.static.flickr.com/3622/3665668666_aacca53ddd.jpg\r\n'
p1041
aS'http://farm3.static.flickr.com/2522/3963791993_91d9c27d43.jpg\r\n'
p1042
aS'http://farm4.static.flickr.com/3148/2426665974_e21b98f477.jpg\r\n'
p1043
aS'http://farm3.static.flickr.com/2378/2418718725_e158dbfabf.jpg\r\n'
p1044
aS'http://farm3.static.flickr.com/2563/3949770995_e54ede781a.jpg\r\n'
p1045
aS'http://farm4.static.flickr.com/3258/3234795064_79f66fea62.jpg\r\n'
p1046
aS'http://farm4.static.flickr.com/3049/3074383227_58a5cfa805.jpg\r\n'
p1047
aS'http://farm5.static.flickr.com/4027/4644471166_88308a1502.jpg\r\n'
p1048
aS'http://farm4.static.flickr.com/3220/3040671030_c786d18dc6.jpg\r\n'
p1049
aS'http://farm5.static.flickr.com/4041/4701526179_190010c75d.jpg\r\n'
p1050
aS'http://farm3.static.flickr.com/2540/3949769583_44f98a3572.jpg\r\n'
p1051
aS'http://farm1.static.flickr.com/70/227002493_25b73032f4.jpg\r\n'
p1052
aS'http://farm2.static.flickr.com/1097/1485753276_fb64cec72b.jpg\r\n'
p1053
aS'http://farm5.static.flickr.com/4073/4823554902_8a76a79a53.jpg\r\n'
p1054
aS'http://farm5.static.flickr.com/4007/4543450933_d76ebcf78f.jpg\r\n'
p1055
aS'http://farm1.static.flickr.com/82/275307596_cb225bee2e.jpg\r\n'
p1056
aS'http://farm3.static.flickr.com/2248/2327744461_12c9649a35.jpg\r\n'
p1057
aS'http://farm4.static.flickr.com/3200/2947155589_e430a8edc2.jpg\r\n'
p1058
aS'http://farm5.static.flickr.com/4052/4437848789_680d19495d.jpg\r\n'
p1059
aS'http://farm4.static.flickr.com/3204/2304901031_5495164bec.jpg\r\n'
p1060
aS'http://farm4.static.flickr.com/3163/3015170269_d99d968528.jpg\r\n'
p1061
aS'http://farm4.static.flickr.com/3206/2330004486_c862113b91.jpg\r\n'
p1062
aS'http://farm4.static.flickr.com/3501/3952356808_383b8b0e08.jpg\r\n'
p1063
aS'http://farm2.static.flickr.com/1108/4725576839_d06afefba6.jpg\r\n'
p1064
aS'http://farm5.static.flickr.com/4106/5041059009_9e1f7634e1.jpg\r\n'
p1065
aS'http://farm3.static.flickr.com/2133/2462856002_58045db56b.jpg\r\n'
p1066
aS'http://farm3.static.flickr.com/2276/2325166658_2a1b1b82b8.jpg\r\n'
p1067
aS'http://farm5.static.flickr.com/4090/5000145567_537af0863e.jpg\r\n'
p1068
aS'http://farm5.static.flickr.com/4077/4748876163_03e7502172.jpg\r\n'
p1069
aS'http://farm1.static.flickr.com/8/7329107_9f5f308a39.jpg\r\n'
p1070
aS'http://farm4.static.flickr.com/3085/2329590379_58cb97bf43.jpg\r\n'
p1071
aS'http://farm5.static.flickr.com/4014/4567295555_0eca8c9b91.jpg\r\n'
p1072
aS'http://farm3.static.flickr.com/2064/2327420777_ec62aa239e.jpg\r\n'
p1073
aS'http://farm4.static.flickr.com/3223/2330573430_ecea4611dd.jpg\r\n'
p1074
aS'http://farm3.static.flickr.com/2564/4103018304_69927c07c3.jpg\r\n'
p1075
aS'http://farm5.static.flickr.com/4026/4316838637_329b947902.jpg\r\n'
p1076
aS'http://farm3.static.flickr.com/2561/4016649344_b3f3485dd7.jpg\r\n'
p1077
aS'http://farm4.static.flickr.com/3581/3486931662_640e375f46.jpg\r\n'
p1078
aS'http://farm4.static.flickr.com/3314/3177144431_b23a853aef.jpg\r\n'
p1079
aS'http://farm4.static.flickr.com/3241/2328676218_70c4276d39.jpg\r\n'
p1080
aS'http://farm4.static.flickr.com/3603/3486864272_2959380ac1.jpg\r\n'
p1081
aS'http://farm4.static.flickr.com/3484/3918594415_2c089aa38a.jpg\r\n'
p1082
aS'http://farm3.static.flickr.com/2046/2324684176_25051be255.jpg\r\n'
p1083
aS'http://farm4.static.flickr.com/3194/2756386207_69633861c4.jpg\r\n'
p1084
aS'http://farm4.static.flickr.com/3119/2841991099_3e89733a7c.jpg\r\n'
p1085
aS'http://farm3.static.flickr.com/2214/2329812141_66ec7613b6.jpg\r\n'
p1086
aS'http://farm3.static.flickr.com/2721/4534182815_30840387e0.jpg\r\n'
p1087
aS'http://farm4.static.flickr.com/3111/2909781414_490febf5a4.jpg\r\n'
p1088
aS'http://farm3.static.flickr.com/2637/3950553706_af69748ef5.jpg\r\n'
p1089
aS'http://farm3.static.flickr.com/2666/3922072471_5a0c89cf30.jpg\r\n'
p1090
aS'http://farm1.static.flickr.com/30/56229274_467dbe3d4d.jpg\r\n'
p1091
aS'http://farm4.static.flickr.com/3170/2329667789_5fcb598fc2.jpg\r\n'
p1092
aS'http://farm1.static.flickr.com/122/292842544_6c8e55cc69.jpg\r\n'
p1093
aS'http://farm4.static.flickr.com/3023/2328146777_692d3d851d.jpg\r\n'
p1094
aS'http://farm5.static.flickr.com/4077/4822940049_4ae231dc2d.jpg\r\n'
p1095
aS'http://farm4.static.flickr.com/3009/2328744717_7957cc8fc7.jpg\r\n'
p1096
aS'http://farm1.static.flickr.com/43/109608094_e17ca7b9c2.jpg\r\n'
p1097
aS'http://farm3.static.flickr.com/2239/2634553030_893d7ff1ea.jpg\r\n'
p1098
aS'http://farm4.static.flickr.com/3080/2329673701_45dfa3d760.jpg\r\n'
p1099
aS'http://farm1.static.flickr.com/216/509841719_db70d67643.jpg\r\n'
p1100
aS'http://farm4.static.flickr.com/3262/2328589450_eeac2987ba.jpg\r\n'
p1101
aS'http://farm4.static.flickr.com/3299/3492190349_a2a8405c2f.jpg\r\n'
p1102
aS'http://farm1.static.flickr.com/12/18314295_bd0bf1cd18.jpg\r\n'
p1103
aS'http://farm3.static.flickr.com/2408/2330482656_b3ec3ae921.jpg\r\n'
p1104
aS'http://farm3.static.flickr.com/2351/2330285934_0af0722998.jpg\r\n'
p1105
aS'http://farm3.static.flickr.com/2515/3919358142_148e563400.jpg\r\n'
p1106
aS'http://farm4.static.flickr.com/3166/2328208613_ce644d0cb7.jpg\r\n'
p1107
aS'http://farm4.static.flickr.com/3226/2329588454_ba0824f1fc.jpg\r\n'
p1108
aS'http://farm1.static.flickr.com/130/349081842_0bc69adc7a.jpg\r\n'
p1109
aS'http://farm4.static.flickr.com/3363/3613979181_f3136e5603.jpg\r\n'
p1110
aS'http://farm5.static.flickr.com/4042/4479175202_94e9c7b7ec.jpg\r\n'
p1111
aS'http://farm3.static.flickr.com/2445/3949789265_8a1cf0bf0d.jpg\r\n'
p1112
aS'http://farm4.static.flickr.com/3437/3352020616_1d1b27c160.jpg\r\n'
p1113
aS'http://farm5.static.flickr.com/4002/4316517293_850e6487bc.jpg\r\n'
p1114
aS'http://farm5.static.flickr.com/4070/4297545594_063dd09967.jpg\r\n'
p1115
aS'http://farm4.static.flickr.com/3025/2641180309_38ea2628c3.jpg\r\n'
p1116
aS'http://farm4.static.flickr.com/3095/2667921486_ba515ce51d.jpg\r\n'
p1117
aS'http://farm4.static.flickr.com/3570/3351362803_ed0e31a6f0.jpg\r\n'
p1118
aS'http://farm3.static.flickr.com/2350/2329599073_339405343d.jpg\r\n'
p1119
aS'http://farm3.static.flickr.com/2556/3895545581_54bb7a5821.jpg\r\n'
p1120
aS'http://farm4.static.flickr.com/3140/2360895695_287c44d539.jpg\r\n'
p1121
aS'http://farm5.static.flickr.com/4039/4257961057_be8b271558.jpg\r\n'
p1122
aS'http://farm4.static.flickr.com/3145/2369777960_5aa00f5933.jpg\r\n'
p1123
aS'http://farm3.static.flickr.com/2170/2325211814_bffa35a29f.jpg\r\n'
p1124
aS'http://farm3.static.flickr.com/2121/2330007108_53d06c7ddc.jpg\r\n'
p1125
aS'http://farm3.static.flickr.com/2295/2325492770_054c53400c.jpg\r\n'
p1126
aS'http://farm2.static.flickr.com/1375/4726484238_0d6684afe4.jpg\r\n'
p1127
aS'http://farm5.static.flickr.com/4047/4576402362_65ba5e7db2.jpg\r\n'
p1128
aS'http://farm2.static.flickr.com/1084/1374270079_99ba87307c.jpg\r\n'
p1129
aS'http://farm4.static.flickr.com/3123/2329321191_4ee9e48d63.jpg\r\n'
p1130
aS'http://farm4.static.flickr.com/3007/2511598384_54fc477432.jpg\r\n'
p1131
aS'http://farm5.static.flickr.com/4050/4575898261_dd5baaa8f8.jpg\r\n'
p1132
aS'http://farm4.static.flickr.com/3180/3021424869_ccda3d0d20.jpg\r\n'
p1133
aS'http://farm3.static.flickr.com/2388/2327760056_dc43f43cd7.jpg\r\n'
p1134
aS'http://farm3.static.flickr.com/2101/2388889287_fcc3df2769.jpg\r\n'
p1135
aS'http://farm4.static.flickr.com/3086/3154716520_f1a7d87e1e.jpg\r\n'
p1136
aS'http://farm5.static.flickr.com/4015/4468869375_9edc9c4cd2.jpg\r\n'
p1137
aS'http://farm3.static.flickr.com/2154/2323284257_e610a0d8cf.jpg\r\n'
p1138
aS'http://farm4.static.flickr.com/3312/3194196116_cd749dc76d.jpg\r\n'
p1139
aS'http://farm4.static.flickr.com/3235/2326965755_54e16730fa.jpg\r\n'
p1140
aS'http://farm5.static.flickr.com/4047/4710414636_b3deeba60e.jpg\r\n'
p1141
aS'http://farm3.static.flickr.com/2299/2426670176_6594d2f83d.jpg\r\n'
p1142
aS'http://farm4.static.flickr.com/3418/3349323476_1f3c618c5b.jpg\r\n'
p1143
aS'http://farm3.static.flickr.com/2468/3553721325_623c6b3155.jpg\r\n'
p1144
aS'http://farm3.static.flickr.com/2155/2328868516_0f7939612f.jpg\r\n'
p1145
aS'http://farm2.static.flickr.com/1297/574866907_bb789e78f2.jpg\r\n'
p1146
aS'http://farm2.static.flickr.com/1043/1003105106_5090b8b442.jpg\r\n'
p1147
aS'http://farm4.static.flickr.com/3430/3933777096_b2d3fcec5d.jpg\r\n'
p1148
aS'http://farm4.static.flickr.com/3250/3643016955_c183dc1ebe.jpg\r\n'
p1149
aS'http://farm1.static.flickr.com/41/83309142_c4217f196f.jpg\r\n'
p1150
aS'http://farm1.static.flickr.com/72/210871431_786ecb43d0.jpg\r\n'
p1151
aS'http://farm4.static.flickr.com/3201/2327987774_4bdcdb85bd.jpg\r\n'
p1152
aS'http://farm5.static.flickr.com/4064/4581847776_e2f10af20d.jpg\r\n'
p1153
aS'http://farm3.static.flickr.com/2518/3932666421_5ebf6d8329.jpg\r\n'
p1154
aS'http://farm2.static.flickr.com/1101/3164864002_440728e13e.jpg\r\n'
p1155
aS'http://farm3.static.flickr.com/2574/3919502042_4e6059e2c7.jpg\r\n'
p1156
aS'http://farm4.static.flickr.com/3034/2709024979_b423f2e64a.jpg\r\n'
p1157
aS'http://farm5.static.flickr.com/4071/4576389454_05eed82051.jpg\r\n'
p1158
aS'http://farm3.static.flickr.com/2377/2324154232_9f698f3c89.jpg\r\n'
p1159
aS'http://farm3.static.flickr.com/2335/2329263161_d4faa09744.jpg\r\n'
p1160
aS'http://farm4.static.flickr.com/3655/3643015647_2b6b0fc50e.jpg\r\n'
p1161
aS'http://farm4.static.flickr.com/3151/2323011791_a7a70047a2.jpg\r\n'
p1162
aS'http://farm5.static.flickr.com/4033/4567295149_bcae1288b2.jpg\r\n'
p1163
aS'http://farm3.static.flickr.com/2004/2144609800_1802e01053.jpg\r\n'
p1164
aS'http://farm3.static.flickr.com/2021/1558886031_d208af8821.jpg\r\n'
p1165
aS'http://farm3.static.flickr.com/2470/3629898650_6940d11a9b.jpg\r\n'
p1166
aS'http://farm5.static.flickr.com/4022/4718047700_e8b8350468.jpg\r\n'
p1167
aS'http://farm5.static.flickr.com/4122/4826149466_4efdf7a740.jpg\r\n'
p1168
aS'http://farm5.static.flickr.com/4020/4439434229_84e512cf65.jpg\r\n'
p1169
aS'http://farm4.static.flickr.com/3184/2330076132_bdeb518645.jpg\r\n'
p1170
aS'http://farm5.static.flickr.com/4042/4543455787_07b8462dec.jpg\r\n'
p1171
aS'http://farm5.static.flickr.com/4031/4506251770_ba197612e0.jpg\r\n'
p1172
aS'http://farm4.static.flickr.com/3660/3430731419_1e368014de.jpg\r\n'
p1173
aS'http://farm1.static.flickr.com/34/111277881_c4a248399c.jpg\r\n'
p1174
aS'http://farm4.static.flickr.com/3187/2327764747_7b6fcfd691.jpg\r\n'
p1175
aS'http://farm5.static.flickr.com/4064/4575780123_351b8b4db5.jpg\r\n'
p1176
aS'http://farm3.static.flickr.com/2777/4292543437_b3529ff25d.jpg\r\n'
p1177
aS'http://farm5.static.flickr.com/4099/4825694992_e3928b7a5c.jpg\r\n'
p1178
aS'http://farm4.static.flickr.com/3235/3015413587_8396fa3f36.jpg\r\n'
p1179
aS'http://farm3.static.flickr.com/2067/2330213402_48854d3ebe.jpg\r\n'
p1180
aS'http://farm5.static.flickr.com/4055/4248125130_b637942ff9.jpg\r\n'
p1181
aS'http://comps.fotosearch.com/comp/WTD/WTD227/hombre-negocios-mujer_~JLF00212.jpg\r\n'
p1182
aS'http://farm3.static.flickr.com/2107/2048257543_79b30915cd.jpg\r\n'
p1183
aS'http://farm4.static.flickr.com/3075/2327866645_80f846ef45.jpg\r\n'
p1184
aS'http://farm3.static.flickr.com/2461/3595389265_366e05c2ec.jpg\r\n'
p1185
aS'http://farm3.static.flickr.com/2249/2328926048_35cb94fc98.jpg\r\n'
p1186
aS'http://farm4.static.flickr.com/3010/2324447135_794ce52f06.jpg\r\n'
p1187
aS'http://farm4.static.flickr.com/3280/2934143255_997133a732.jpg\r\n'
p1188
aS'http://farm4.static.flickr.com/3539/3381481123_ab865f324b.jpg\r\n'
p1189
aS'http://farm3.static.flickr.com/2414/2359719628_b77360648e.jpg\r\n'
p1190
aS'http://farm5.static.flickr.com/4055/4590585029_ff1b1a8f89.jpg\r\n'
p1191
aS'http://farm3.static.flickr.com/2775/4383706599_c2ba6ef73c.jpg\r\n'
p1192
aS'http://farm3.static.flickr.com/2238/2329761973_cf6a56bffd.jpg\r\n'
p1193
aS'http://farm4.static.flickr.com/3197/2324634915_49b067e12b.jpg\r\n'
p1194
aS'http://farm3.static.flickr.com/2063/2329704302_f161fa09f3.jpg\r\n'
p1195
aS'http://farm4.static.flickr.com/3197/2328656506_b59c8f5598.jpg\r\n'
p1196
aS'http://farm3.static.flickr.com/2166/2325215736_3bfd10205a.jpg\r\n'
p1197
aS'http://farm4.static.flickr.com/3118/2709022271_83abdcc2ce.jpg\r\n'
p1198
aS'http://farm1.static.flickr.com/221/519269278_292c8e8136.jpg\r\n'
p1199
aS'http://farm3.static.flickr.com/2320/2328828565_27cb383553.jpg\r\n'
p1200
aS'http://farm4.static.flickr.com/3192/2768758992_2d0a0ef770.jpg\r\n'
p1201
aS'http://farm1.static.flickr.com/121/307587932_04f757bfbb.jpg\r\n'
p1202
aS'http://farm3.static.flickr.com/2040/2324687171_764564d33a.jpg\r\n'
p1203
aS'http://farm4.static.flickr.com/3287/2329158137_808d6171ee.jpg\r\n'
p1204
aS'http://farm3.static.flickr.com/2019/2327801627_28fc6c3ff2.jpg\r\n'
p1205
aS'http://farm1.static.flickr.com/1/4430702_9d5962f888.jpg\r\n'
p1206
aS'http://farm3.static.flickr.com/2095/2434331326_e169eb82c7.jpg\r\n'
p1207
aS'http://farm4.static.flickr.com/3281/2324404843_91005d338f.jpg\r\n'
p1208
aS'http://farm4.static.flickr.com/3155/2327173523_5ef783d6da.jpg\r\n'
p1209
aS'http://farm4.static.flickr.com/3230/2821506248_046b57797b.jpg\r\n'
p1210
aS'http://farm3.static.flickr.com/2766/4534183297_b960847093.jpg\r\n'
p1211
aS'http://farm3.static.flickr.com/2332/2329519207_f2c6d9c366.jpg\r\n'
p1212
aS'http://farm1.static.flickr.com/120/287942153_c97d501e09.jpg\r\n'
p1213
aS'http://farm5.static.flickr.com/4024/4701527613_1d478f36d4.jpg\r\n'
p1214
aS'http://farm4.static.flickr.com/3248/2943573539_a99081f8d4.jpg\r\n'
p1215
aS'http://farm2.static.flickr.com/1289/4704322491_55b310115c.jpg\r\n'
p1216
aS'http://farm4.static.flickr.com/3587/3554524034_b7ddd27ae1.jpg\r\n'
p1217
aS'http://farm1.static.flickr.com/189/510915735_52470d9856.jpg\r\n'
p1218
aS'http://farm3.static.flickr.com/2113/2330476724_8f5bedc4cf.jpg\r\n'
p1219
aS'http://farm4.static.flickr.com/3094/2889252321_afa7b248cf.jpg\r\n'
p1220
aS'http://farm4.static.flickr.com/3258/2329217681_eba101c2c1.jpg\r\n'
p1221
aS'http://farm4.static.flickr.com/3448/3389637794_99fa312699.jpg\r\n'
p1222
aS'http://farm4.static.flickr.com/3436/3964007845_8de66674c4.jpg\r\n'
p1223
aS'http://farm3.static.flickr.com/2205/2329043522_3c8a7ea366.jpg\r\n'
p1224
aS'http://farm4.static.flickr.com/3567/3437471977_2fd6ca2873.jpg\r\n'
p1225
aS'http://farm5.static.flickr.com/4038/4350828394_fe24380995.jpg\r\n'
p1226
aS'http://farm4.static.flickr.com/3608/3420231239_137bfe955c.jpg\r\n'
p1227
aS'http://farm5.static.flickr.com/4097/4823553920_a04a029236.jpg\r\n'
p1228
aS'http://farm5.static.flickr.com/4050/4701527041_01ff79f555.jpg\r\n'
p1229
aS'http://farm4.static.flickr.com/3541/3431570232_4019d81664.jpg\r\n'
p1230
aS'http://farm5.static.flickr.com/4045/4298479012_5c7868848c.jpg\r\n'
p1231
aS'http://farm4.static.flickr.com/3098/2299174504_d8133b1b85.jpg\r\n'
p1232
aS'http://farm1.static.flickr.com/19/22752949_75eba878ce.jpg\r\n'
p1233
aS'http://farm2.static.flickr.com/1146/1255817778_e5c574c7e9.jpg\r\n'
p1234
aS'http://farm4.static.flickr.com/3228/4015769873_7080b483df.jpg\r\n'
p1235
aS'http://farm1.static.flickr.com/165/438016962_64b4017189.jpg\r\n'
p1236
aS'http://farm4.static.flickr.com/3616/3431457854_d7945acda9.jpg\r\n'
p1237
aS'http://farm3.static.flickr.com/2307/2325484746_42c69608d9.jpg\r\n'
p1238
aS'http://farm4.static.flickr.com/3230/2327330551_109b2c665c.jpg\r\n'
p1239
aS'http://farm3.static.flickr.com/2126/3530123933_e37eab0c81.jpg\r\n'
p1240
aS'http://farm2.static.flickr.com/1401/4726010638_6a2b98fafb.jpg\r\n'
p1241
aS'http://farm5.static.flickr.com/4002/4652367905_7bee167dbc.jpg\r\n'
p1242
aS'http://farm5.static.flickr.com/4138/4961697954_10ed8ddae9.jpg\r\n'
p1243
aS'http://farm3.static.flickr.com/2102/2326786883_540db23084.jpg\r\n'
p1244
aS'http://farm3.static.flickr.com/2012/2324007133_1da0769ba8.jpg\r\n'
p1245
aS'http://farm4.static.flickr.com/3579/3431662898_ebaf81324e.jpg\r\n'
p1246
aS'http://farm4.static.flickr.com/3272/2835315919_b534734e95.jpg\r\n'
p1247
aS'http://farm3.static.flickr.com/2405/2330540276_ac3be3babd.jpg\r\n'
p1248
aS'http://farm2.static.flickr.com/1233/4725930773_782e98e5b8.jpg\r\n'
p1249
aS'http://farm3.static.flickr.com/2323/2324761328_e3dc3d7594.jpg\r\n'
p1250
aS'http://farm4.static.flickr.com/3026/2328117520_2f2f127bfe.jpg\r\n'
p1251
aS'http://farm3.static.flickr.com/2354/2426666062_b38c201fec.jpg\r\n'
p1252
aS'http://farm2.static.flickr.com/1229/1117094761_641131a42c.jpg\r\n'
p1253
aS'http://farm3.static.flickr.com/2656/3950548830_9a1c093f4a.jpg\r\n'
p1254
aS'http://farm4.static.flickr.com/3230/2937974780_0c41e9c93b.jpg\r\n'
p1255
aS'http://farm4.static.flickr.com/3566/3351265981_8d041f81b9.jpg\r\n'
p1256
aS'http://farm3.static.flickr.com/2444/4063985317_66c0589175.jpg\r\n'
p1257
aS'http://farm3.static.flickr.com/2097/2327974070_79e2671bf5.jpg\r\n'
p1258
aS'http://farm4.static.flickr.com/3197/2327221559_45350d0bbd.jpg\r\n'
p1259
aS'http://farm5.static.flickr.com/4015/4534815522_9a954fffd6.jpg\r\n'
p1260
aS'http://farm5.static.flickr.com/4083/5088365170_124554421d.jpg\r\n'
p1261
aS'http://farm5.static.flickr.com/4066/4644474750_169671a8fe.jpg\r\n'
p1262
aS'http://farm3.static.flickr.com/2804/4287385765_2cb71e7705.jpg\r\n'
p1263
aS'http://farm3.static.flickr.com/2216/2324980082_66d3a5b3b8.jpg\r\n'
p1264
aS'http://www.davestravel.com/photos/favorites/Zanzibar-Man-Children.jpg\r\n'
p1265
aS'http://farm2.static.flickr.com/1106/1287506354_d4ae36d7a5.jpg\r\n'
p1266
aS'http://222.240.214.122/Portals/64/images/\xe5\xb8\x82\xe6\xae\x8b\xe8\x81\x94\xe7\xba\xaa\xe6\xa3\x80\xe4\xb9\xa6\xe8\xae\xb0\xe5\xbd\xad\xe7\xba\xaf\xe7\x9b\x8a\xef\xbc\x88\xe5\xb7\xa6\xe4\xb8\x80\xef\xbc\x89\xe8\xa7\x82\xe7\x9c\x8b\xe7\xa4\xbe\xe5\x8c\xba\xe6\xae\x8b\xe7\x96\xbe\xe4\xba\xba\xe5\x9b\xbe\xe4\xb9\xa6\xe5\xae\xa4.jpg\r\n'
p1267
aS'http://static.flickr.com/3158/2807020165_92c9679202.jpg\r\n'
p1268
aS'http://farm4.static.flickr.com/3108/2330178678_32f6a78541.jpg\r\n'
p1269
aS'http://farm1.static.flickr.com/13/18314304_03b8709012.jpg\r\n'
p1270
aS'http://img.literatuurplein.nl/blobs/N/1979/1/1.jpg\r\n'
p1271
aS'http://www.ecolife.be/nieuwsbrief/2008-4/lieven.jpg\r\n'
p1272
aS'http://blogsimages.skynet.be/images_v2/000/002/782/20060427/dyn004_original_468_312_pjpeg_2782_65d72f50d3658770d654abcc7e0b24f3.jpg\r\n'
p1273
aS'http://farm4.static.flickr.com/3616/3553724385_d6d37eb918.jpg\r\n'
p1274
aS'http://farm2.static.flickr.com/1260/664888574_9bd11c9d9e.jpg\r\n'
p1275
aS'http://www.pretobrazza.be/Images/blankenberge_0030.jpg\r\n'
p1276
aS'http://api.ning.com/files/inC8Za9XYjhe5bL2*eWwco35d9vF-hQ7HeVSF7AhIZGXf0clHSgwm8g4GN-NxDEGlHPlCmDQ4fi0QThxahRN8uOMnYD8X*1T/Manstyle.JPG\r\n'
p1277
aS'http://anjameulenbelt.sp.nl/images/doop01.jpg\r\n'
p1278
aS'http://farm4.static.flickr.com/3379/3187365929_353b258730.jpg\r\n'
p1279
aS'http://farm4.static.flickr.com/3536/3293772232_1b0a50ebb1.jpg\r\n'
p1280
aS'http://farm5.static.flickr.com/4048/4281239673_9b76733bfb.jpg\r\n'
p1281
aS'http://farm4.static.flickr.com/3010/2968646103_f824f70cbe.jpg\r\n'
p1282
aS'http://www.theonion.com/content/files/images/WILLING_MAN_article.jpg\r\n'
p1283
aS'http://farm3.static.flickr.com/2665/3958381131_dc57aedbd3.jpg\r\n'
p1284
aS'http://dealer.yesky.com/imagelist/2009/231/5f09q18v482ts.jpg\r\n'
p1285
aS'http://www.chinadaily.com.cn/hqyl/images/attachement/jpg/site1/20090922/00221917eae80c22664103.jpg\r\n'
p1286
aS'http://farm4.static.flickr.com/3550/3327010140_31cba8fbb5.jpg\r\n'
p1287
aS'http://farm1.static.flickr.com/25/273908274_363a70a39a.jpg\r\n'
p1288
aS'http://farm3.static.flickr.com/2568/3905594033_9a4bf62a45.jpg\r\n'
p1289
aS'http://static.flickr.com/3031/2762827485_667af41df0.jpg\r\n'
p1290
aS'http://farm4.static.flickr.com/3502/3955720149_ae8fe8f1c6.jpg\r\n'
p1291
aS'http://farm3.static.flickr.com/2425/3814151301_d8a79e2858.jpg\r\n'
p1292
aS'http://farm4.static.flickr.com/3130/2559651905_be5beb3b59.jpg\r\n'
p1293
aS'\n'
p1294
a.